EXPORTS
	??0RSISpeechRecognitionCustomCommands@@QAE@AAVRMMFController@@@Z @ 1 NONAME ; public: __thiscall RSISpeechRecognitionCustomCommands::RSISpeechRecognitionCustomCommands(class RMMFController &)
	??1CSISpeechRecognitionCustomCommandParser@@UAE@XZ @ 2 NONAME ; public: virtual __thiscall CSISpeechRecognitionCustomCommandParser::~CSISpeechRecognitionCustomCommandParser(void)
	?ActivateGrammar@RSISpeechRecognitionCustomCommands@@QAEHG@Z @ 3 NONAME ; public: int __thiscall RSISpeechRecognitionCustomCommands::ActivateGrammar(unsigned short)
	?Adapt@RSISpeechRecognitionCustomCommands@@QAEHABVCSIClientResultSet@@H@Z @ 4 NONAME ; public: int __thiscall RSISpeechRecognitionCustomCommands::Adapt(class CSIClientResultSet const &,int)
	?AddPronunciation@RSISpeechRecognitionCustomCommands@@QAEHGABVTDesC16@@W4TLanguage@@AAK@Z @ 5 NONAME ; public: int __thiscall RSISpeechRecognitionCustomCommands::AddPronunciation(unsigned short,class TDesC16 const &,enum TLanguage,unsigned long &)
	?AddRule@RSISpeechRecognitionCustomCommands@@QAEHGGKAAK@Z @ 6 NONAME ; public: int __thiscall RSISpeechRecognitionCustomCommands::AddRule(unsigned short,unsigned short,unsigned long,unsigned long &)
	?AddRuleVariant@RSISpeechRecognitionCustomCommands@@QAEHGGABV?$RArray@K@@KAAE@Z @ 7 NONAME ; public: int __thiscall RSISpeechRecognitionCustomCommands::AddRuleVariant(unsigned short,unsigned short,class RArray<unsigned long> const &,unsigned long,unsigned char &)
	?AddVoiceTag@RSISpeechRecognitionCustomCommands@@QAEHABVMDesC16Array@@ABV?$RArray@W4TLanguage@@@@GGAAK@Z @ 8 NONAME ; public: int __thiscall RSISpeechRecognitionCustomCommands::AddVoiceTag(class MDesC16Array const &,class RArray<enum TLanguage> const &,unsigned short,unsigned short,unsigned long &)
	?AddVoiceTags@RSISpeechRecognitionCustomCommands@@QAEHABV?$RPointerArray@VMDesC16Array@@@@ABV?$RArray@W4TLanguage@@@@GGAAV?$RArray@K@@@Z @ 9 NONAME ; public: int __thiscall RSISpeechRecognitionCustomCommands::AddVoiceTags(class RPointerArray<class MDesC16Array> const &,class RArray<enum TLanguage> const &,unsigned short,unsigned short,class RArray<unsigned long> &)
	?Cancel@RSISpeechRecognitionCustomCommands@@QAEXXZ @ 10 NONAME ; public: void __thiscall RSISpeechRecognitionCustomCommands::Cancel(void)
	?CommitChanges@RSISpeechRecognitionCustomCommands@@QAEHXZ @ 11 NONAME ; public: int __thiscall RSISpeechRecognitionCustomCommands::CommitChanges(void)
	?CreateGrammar@RSISpeechRecognitionCustomCommands@@QAEHAAG@Z @ 12 NONAME ; public: int __thiscall RSISpeechRecognitionCustomCommands::CreateGrammar(unsigned short &)
	?CreateLexicon@RSISpeechRecognitionCustomCommands@@QAEHAAG@Z @ 13 NONAME ; public: int __thiscall RSISpeechRecognitionCustomCommands::CreateLexicon(unsigned short &)
	?CreateModelBank@RSISpeechRecognitionCustomCommands@@QAEHAAG@Z @ 14 NONAME ; public: int __thiscall RSISpeechRecognitionCustomCommands::CreateModelBank(unsigned short &)
	?CreateRule@RSISpeechRecognitionCustomCommands@@QAEHGAAK@Z @ 15 NONAME ; public: int __thiscall RSISpeechRecognitionCustomCommands::CreateRule(unsigned short,unsigned long &)
	?DeactivateGrammar@RSISpeechRecognitionCustomCommands@@QAEHG@Z @ 16 NONAME ; public: int __thiscall RSISpeechRecognitionCustomCommands::DeactivateGrammar(unsigned short)
	?EndRecSession@RSISpeechRecognitionCustomCommands@@QAEHXZ @ 17 NONAME ; public: int __thiscall RSISpeechRecognitionCustomCommands::EndRecSession(void)
	?EndRecord@RSISpeechRecognitionCustomCommands@@QAEHXZ @ 18 NONAME ; public: int __thiscall RSISpeechRecognitionCustomCommands::EndRecord(void)
	?GetAllClientGrammarIDs@RSISpeechRecognitionCustomCommands@@QAEHXZ @ 19 NONAME ; public: int __thiscall RSISpeechRecognitionCustomCommands::GetAllClientGrammarIDs(void)
	?GetAllClientLexiconIDs@RSISpeechRecognitionCustomCommands@@QAEHXZ @ 20 NONAME ; public: int __thiscall RSISpeechRecognitionCustomCommands::GetAllClientLexiconIDs(void)
	?GetAllClientModelBankIDs@RSISpeechRecognitionCustomCommands@@QAEHXZ @ 21 NONAME ; public: int __thiscall RSISpeechRecognitionCustomCommands::GetAllClientModelBankIDs(void)
	?GetAllGrammarIDs@RSISpeechRecognitionCustomCommands@@QAEHXZ @ 22 NONAME ; public: int __thiscall RSISpeechRecognitionCustomCommands::GetAllGrammarIDs(void)
	?GetAllLexiconIDs@RSISpeechRecognitionCustomCommands@@QAEHXZ @ 23 NONAME ; public: int __thiscall RSISpeechRecognitionCustomCommands::GetAllLexiconIDs(void)
	?GetAllModelBankIDs@RSISpeechRecognitionCustomCommands@@QAEHXZ @ 24 NONAME ; public: int __thiscall RSISpeechRecognitionCustomCommands::GetAllModelBankIDs(void)
	?GetAllModelIDs@RSISpeechRecognitionCustomCommands@@QAEHG@Z @ 25 NONAME ; public: int __thiscall RSISpeechRecognitionCustomCommands::GetAllModelIDs(unsigned short)
	?GetAllPronunciationIDs@RSISpeechRecognitionCustomCommands@@QAEHG@Z @ 26 NONAME ; public: int __thiscall RSISpeechRecognitionCustomCommands::GetAllPronunciationIDs(unsigned short)
	?GetAllRuleIDs@RSISpeechRecognitionCustomCommands@@QAEHG@Z @ 27 NONAME ; public: int __thiscall RSISpeechRecognitionCustomCommands::GetAllRuleIDs(unsigned short)
	?GetEngineProperties@RSISpeechRecognitionCustomCommands@@QAEHABV?$RArray@H@@AAV2@@Z @ 28 NONAME ; public: int __thiscall RSISpeechRecognitionCustomCommands::GetEngineProperties(class RArray<int> const &,class RArray<int> &)
	?GetGrammarIDArrayL@RSISpeechRecognitionCustomCommands@@QAEXAAV?$RArray@G@@@Z @ 29 NONAME ; public: void __thiscall RSISpeechRecognitionCustomCommands::GetGrammarIDArrayL(class RArray<unsigned short> &)
	?GetLexiconIDArrayL@RSISpeechRecognitionCustomCommands@@QAEXAAV?$RArray@G@@@Z @ 30 NONAME ; public: void __thiscall RSISpeechRecognitionCustomCommands::GetLexiconIDArrayL(class RArray<unsigned short> &)
	?GetModelBankIDArrayL@RSISpeechRecognitionCustomCommands@@QAEXAAV?$RArray@G@@@Z @ 31 NONAME ; public: void __thiscall RSISpeechRecognitionCustomCommands::GetModelBankIDArrayL(class RArray<unsigned short> &)
	?GetModelCount@RSISpeechRecognitionCustomCommands@@QAEHGAAH@Z @ 32 NONAME ; public: int __thiscall RSISpeechRecognitionCustomCommands::GetModelCount(unsigned short,int &)
	?GetModelIDArrayL@RSISpeechRecognitionCustomCommands@@QAEXAAV?$RArray@G@@@Z @ 33 NONAME ; public: void __thiscall RSISpeechRecognitionCustomCommands::GetModelIDArrayL(class RArray<unsigned short> &)
	?GetPronunciationIDArrayL@RSISpeechRecognitionCustomCommands@@QAEXAAV?$RArray@K@@@Z @ 34 NONAME ; public: void __thiscall RSISpeechRecognitionCustomCommands::GetPronunciationIDArrayL(class RArray<unsigned long> &)
	?GetRuleIDArrayL@RSISpeechRecognitionCustomCommands@@QAEXAAV?$RArray@K@@@Z @ 35 NONAME ; public: void __thiscall RSISpeechRecognitionCustomCommands::GetRuleIDArrayL(class RArray<unsigned long> &)
	?GetRuleValidity@RSISpeechRecognitionCustomCommands@@QAEHGKAAH@Z @ 36 NONAME ; public: int __thiscall RSISpeechRecognitionCustomCommands::GetRuleValidity(unsigned short,unsigned long,int &)
	?GetSIResultSetL@RSISpeechRecognitionCustomCommands@@QAEXAAVCSIClientResultSet@@@Z @ 37 NONAME ; public: void __thiscall RSISpeechRecognitionCustomCommands::GetSIResultSetL(class CSIClientResultSet &)
	?LoadEngineParameters@RSISpeechRecognitionCustomCommands@@QAEHABV?$RArray@H@@0@Z @ 38 NONAME ; public: int __thiscall RSISpeechRecognitionCustomCommands::LoadEngineParameters(class RArray<int> const &,class RArray<int> const &)
	?LoadGrammar@RSISpeechRecognitionCustomCommands@@QAEHG@Z @ 39 NONAME ; public: int __thiscall RSISpeechRecognitionCustomCommands::LoadGrammar(unsigned short)
	?LoadLexicon@RSISpeechRecognitionCustomCommands@@QAEHG@Z @ 40 NONAME ; public: int __thiscall RSISpeechRecognitionCustomCommands::LoadLexicon(unsigned short)
	?LoadModels@RSISpeechRecognitionCustomCommands@@QAEHG@Z @ 41 NONAME ; public: int __thiscall RSISpeechRecognitionCustomCommands::LoadModels(unsigned short)
	?NewL@CSISpeechRecognitionCustomCommandParser@@SAPAV1@AAVMSISpeechRecognitionCustomCommandImplementor@@@Z @ 42 NONAME ; public: static class CSISpeechRecognitionCustomCommandParser * __cdecl CSISpeechRecognitionCustomCommandParser::NewL(class MSISpeechRecognitionCustomCommandImplementor &)
	?Recognize@RSISpeechRecognitionCustomCommands@@QAEHAAVCSIClientResultSet@@@Z @ 43 NONAME ; public: int __thiscall RSISpeechRecognitionCustomCommands::Recognize(class CSIClientResultSet &)
	?Record@RSISpeechRecognitionCustomCommands@@QAEHVTTimeIntervalMicroSeconds32@@@Z @ 44 NONAME ; public: int __thiscall RSISpeechRecognitionCustomCommands::Record(class TTimeIntervalMicroSeconds32)
	?RemoveGrammar@RSISpeechRecognitionCustomCommands@@QAEHG@Z @ 45 NONAME ; public: int __thiscall RSISpeechRecognitionCustomCommands::RemoveGrammar(unsigned short)
	?RemoveLexicon@RSISpeechRecognitionCustomCommands@@QAEHG@Z @ 46 NONAME ; public: int __thiscall RSISpeechRecognitionCustomCommands::RemoveLexicon(unsigned short)
	?RemoveModel@RSISpeechRecognitionCustomCommands@@QAEHGG@Z @ 47 NONAME ; public: int __thiscall RSISpeechRecognitionCustomCommands::RemoveModel(unsigned short,unsigned short)
	?RemoveModelBank@RSISpeechRecognitionCustomCommands@@QAEHG@Z @ 48 NONAME ; public: int __thiscall RSISpeechRecognitionCustomCommands::RemoveModelBank(unsigned short)
	?RemovePronunciation@RSISpeechRecognitionCustomCommands@@QAEHGK@Z @ 49 NONAME ; public: int __thiscall RSISpeechRecognitionCustomCommands::RemovePronunciation(unsigned short,unsigned long)
	?RemoveRule@RSISpeechRecognitionCustomCommands@@QAEHGK@Z @ 50 NONAME ; public: int __thiscall RSISpeechRecognitionCustomCommands::RemoveRule(unsigned short,unsigned long)
	?RemoveRules@RSISpeechRecognitionCustomCommands@@QAEHGAAV?$RArray@K@@@Z @ 51 NONAME ; public: int __thiscall RSISpeechRecognitionCustomCommands::RemoveRules(unsigned short,class RArray<unsigned long> &)
	?SetClientUid@RSISpeechRecognitionCustomCommands@@QAEHVTUid@@@Z @ 52 NONAME ; public: int __thiscall RSISpeechRecognitionCustomCommands::SetClientUid(class TUid)
	?StartRecSession@RSISpeechRecognitionCustomCommands@@QAEHW4TNSSRecognitionMode@@@Z @ 53 NONAME ; public: int __thiscall RSISpeechRecognitionCustomCommands::StartRecSession(enum TNSSRecognitionMode)
	?UnloadGrammar@RSISpeechRecognitionCustomCommands@@QAEHG@Z @ 54 NONAME ; public: int __thiscall RSISpeechRecognitionCustomCommands::UnloadGrammar(unsigned short)
	?UnloadRule@RSISpeechRecognitionCustomCommands@@QAEHGK@Z @ 55 NONAME ; public: int __thiscall RSISpeechRecognitionCustomCommands::UnloadRule(unsigned short,unsigned long)
	?AddVoiceTag@RSISpeechRecognitionCustomCommands@@QAEHABVMDesC16Array@@ABV?$RArray@V?$RArray@W4TLanguage@@@@@@GGAAK@Z @ 56 NONAME ; int RSISpeechRecognitionCustomCommands::AddVoiceTag(class MDesC16Array const &, class RArray<class RArray<enum TLanguage> > const &, unsigned short, unsigned short, unsigned long &)
	?AddVoiceTags@RSISpeechRecognitionCustomCommands@@QAEHABV?$RPointerArray@VMDesC16Array@@@@ABV?$RArray@V?$RArray@W4TLanguage@@@@@@GGAAV?$RArray@K@@@Z @ 57 NONAME ; int RSISpeechRecognitionCustomCommands::AddVoiceTags(class RPointerArray<class MDesC16Array> const &, class RArray<class RArray<enum TLanguage> > const &, unsigned short, unsigned short, class RArray<unsigned long> &)
	?PreStartSampling@RSISpeechRecognitionCustomCommands@@QAEHXZ @ 58 NONAME ; int RSISpeechRecognitionCustomCommands::PreStartSampling(void)

