EXPORTS
	_ZN11CVCRunnable4NewLE4TUidRK6TDesC8 @ 1 NONAME
	_ZN11CVCRunnable4NewLER11RReadStream @ 2 NONAME
	_ZN11CVCRunnable4NewLERK7TDesC16RK6TDesC8 @ 3 NONAME
	_ZN11CVCRunnable4NewLERKS_ @ 4 NONAME
	_ZN11CVCRunnableD0Ev @ 5 NONAME
	_ZN11CVCRunnableD1Ev @ 6 NONAME
	_ZN11CVCRunnableD2Ev @ 7 NONAME
	_ZN12CVCCommandUi4NewLER11RReadStream @ 8 NONAME
	_ZN12CVCCommandUi4NewLERK7TDesC16RK13CVCFolderInfoiS2_RK4TUidS2_i @ 9 NONAME
	_ZN12CVCCommandUi4NewLERKS_ @ 10 NONAME
	_ZN12CVCCommandUiD0Ev @ 11 NONAME
	_ZN12CVCCommandUiD1Ev @ 12 NONAME
	_ZN12CVCCommandUiD2Ev @ 13 NONAME
	_ZN13CVCFolderInfo4NewLER11RReadStream @ 14 NONAME
	_ZN13CVCFolderInfo4NewLERK7TDesC16S2_mjS2_ @ 15 NONAME
	_ZN13CVCFolderInfo4NewLERKS_ @ 16 NONAME
	_ZN13CVCFolderInfoD0Ev @ 17 NONAME
	_ZN13CVCFolderInfoD1Ev @ 18 NONAME
	_ZN13CVCFolderInfoD2Ev @ 19 NONAME
	_ZN14CVCommandArray4NewLERK13RPointerArrayI9CVCommandE @ 20 NONAME
	_ZN14CVCommandArrayD0Ev @ 21 NONAME
	_ZN14CVCommandArrayD1Ev @ 22 NONAME
	_ZN14CVCommandArrayD2Ev @ 23 NONAME
	_ZN16CVCommandHandler11AddCommandLERK9CVCommand @ 24 NONAME
	_ZN16CVCommandHandler12AddCommandsLERK13RPointerArrayI9CVCommandEi @ 25 NONAME
	_ZN16CVCommandHandler13ListCommandsLEv @ 26 NONAME
	_ZN16CVCommandHandler14RemoveCommandLERK9CVCommand @ 27 NONAME
	_ZN16CVCommandHandler15RemoveCommandsLERK13RPointerArrayI9CVCommandEi @ 28 NONAME
	_ZN16CVCommandHandler4NewLEP24MVCommandHandlerObserver @ 29 NONAME
	_ZN16CVCommandHandlerD0Ev @ 30 NONAME
	_ZN16CVCommandHandlerD1Ev @ 31 NONAME
	_ZN16CVCommandHandlerD2Ev @ 32 NONAME
	_ZN21CVCRecognitionManager4NewLEv @ 33 NONAME
	_ZN21CVCRecognitionManagerD0Ev @ 34 NONAME
	_ZN21CVCRecognitionManagerD1Ev @ 35 NONAME
	_ZN21CVCRecognitionManagerD2Ev @ 36 NONAME
	_ZN9CVCommand4NewLER11RReadStream @ 37 NONAME
	_ZN9CVCommand4NewLERK7TDesC16RK11CVCRunnableRK12CVCCommandUi @ 38 NONAME
	_ZN9CVCommand4NewLERKS_ @ 39 NONAME
	_ZN9CVCommandD0Ev @ 40 NONAME
	_ZN9CVCommandD1Ev @ 41 NONAME
	_ZN9CVCommandD2Ev @ 42 NONAME
	_ZNK11CVCRunnable12ExternalizeLER12RWriteStream @ 43 NONAME
	_ZNK11CVCRunnable3UidEv @ 44 NONAME
	_ZNK11CVCRunnable7ExeNameEv @ 45 NONAME
	_ZNK11CVCRunnable8ExecuteLEv @ 46 NONAME
	_ZNK11CVCRunnable9ArgumentsEv @ 47 NONAME
	_ZNK11CVCRunnableeqERKS_ @ 48 NONAME
	_ZNK12CVCCommandUi10FolderInfoEv @ 49 NONAME
	_ZNK12CVCCommandUi10ModifiableEv @ 50 NONAME
	_ZNK12CVCCommandUi11WrittenTextEv @ 51 NONAME
	_ZNK12CVCCommandUi12ExternalizeLER12RWriteStream @ 52 NONAME
	_ZNK12CVCCommandUi18ConfirmationNeededEv @ 53 NONAME
	_ZNK12CVCCommandUi26EqualNonUserChangeableDataERKS_ @ 54 NONAME
	_ZNK12CVCCommandUi6IconLCEv @ 55 NONAME
	_ZNK12CVCCommandUi7IconUidEv @ 56 NONAME
	_ZNK12CVCCommandUi7TooltipEv @ 57 NONAME
	_ZNK12CVCCommandUi8UserTextEv @ 58 NONAME
	_ZNK12CVCCommandUieqERKS_ @ 59 NONAME
	_ZNK13CVCFolderInfo10ListedNameEv @ 60 NONAME
	_ZNK13CVCFolderInfo11HelpTopicIdEv @ 61 NONAME
	_ZNK13CVCFolderInfo12ExternalizeLER12RWriteStream @ 62 NONAME
	_ZNK13CVCFolderInfo5TitleEv @ 63 NONAME
	_ZNK13CVCFolderInfo6IconLCEv @ 64 NONAME
	_ZNK13CVCFolderInfo8IconFileEv @ 65 NONAME
	_ZNK13CVCFolderInfo9IconIndexEv @ 66 NONAME
	_ZNK13CVCFolderInfoeqERKS_ @ 67 NONAME
	_ZNK14CVCommandArray12PointerArrayEv @ 68 NONAME
	_ZNK14CVCommandArray28ProduceTrainSetByRunnablesLCERK13RPointerArrayI9CVCommandE @ 69 NONAME
	_ZNK14CVCommandArray2AtEi @ 70 NONAME
	_ZNK14CVCommandArray30ProduceUntrainSetByRunnablesLCERK13RPointerArrayI9CVCommandE @ 71 NONAME
	_ZNK14CVCommandArray5CountEv @ 72 NONAME
	_ZNK14CVCommandArrayixEi @ 73 NONAME
	_ZNK9CVCommand10SpokenTextEv @ 74 NONAME
	_ZNK9CVCommand12ExternalizeLER12RWriteStream @ 75 NONAME
	_ZNK9CVCommand15CancelPlaybackLERK16CVCommandHandler @ 76 NONAME
	_ZNK9CVCommand15PlaySpokenTextLERK16CVCommandHandlerR20MNssPlayEventHandler @ 77 NONAME
	_ZNK9CVCommand21AlternativeSpokenTextEv @ 78 NONAME
	_ZNK9CVCommand26EqualNonUserChangeableDataERKS_ @ 79 NONAME
	_ZNK9CVCommand26PlayAlternativeSpokenTextLERK16CVCommandHandlerR20MNssPlayEventHandler @ 80 NONAME
	_ZNK9CVCommand8RunnableEv @ 81 NONAME
	_ZNK9CVCommand9CommandUiEv @ 82 NONAME
	_ZNK9CVCommandeqERKS_ @ 83 NONAME
	_ZTI10CTagGetter @ 84 NONAME ; #<TI>#
	_ZTI10CTagPlayer @ 85 NONAME ; #<TI>#
	_ZTI11CTagNameSet @ 86 NONAME ; #<TI>#
	_ZTI11CVCRunnable @ 87 NONAME ; #<TI>#
	_ZTI12CAsyncWorker @ 88 NONAME ; #<TI>#
	_ZTI12CVCCommandUi @ 89 NONAME ; #<TI>#
	_ZTI13CVCFolderInfo @ 90 NONAME ; #<TI>#
	_ZTI14CVCommandArray @ 91 NONAME ; #<TI>#
	_ZTI15CStoredVCommand @ 92 NONAME ; #<TI>#
	_ZTI16CContextProvider @ 93 NONAME ; #<TI>#
	_ZTI16CVCommandHandler @ 94 NONAME ; #<TI>#
	_ZTI16CVCommandService @ 95 NONAME ; #<TI>#
	_ZTI19CIntPropertyWatcher @ 96 NONAME ; #<TI>#
	_ZTI21CVCRecognitionHandler @ 97 NONAME ; #<TI>#
	_ZTI21CVCRecognitionManager @ 98 NONAME ; #<TI>#
	_ZTI23TVCommandTagPtrArrayKey @ 99 NONAME ; #<TI>#
	_ZTI9CVCommand @ 100 NONAME ; #<TI>#
	_ZTV10CTagGetter @ 101 NONAME ; #<VT>#
	_ZTV10CTagPlayer @ 102 NONAME ; #<VT>#
	_ZTV11CTagNameSet @ 103 NONAME ; #<VT>#
	_ZTV11CVCRunnable @ 104 NONAME ; #<VT>#
	_ZTV12CAsyncWorker @ 105 NONAME ; #<VT>#
	_ZTV12CVCCommandUi @ 106 NONAME ; #<VT>#
	_ZTV13CVCFolderInfo @ 107 NONAME ; #<VT>#
	_ZTV14CVCommandArray @ 108 NONAME ; #<VT>#
	_ZTV15CStoredVCommand @ 109 NONAME ; #<VT>#
	_ZTV16CContextProvider @ 110 NONAME ; #<VT>#
	_ZTV16CVCommandHandler @ 111 NONAME ; #<VT>#
	_ZTV16CVCommandService @ 112 NONAME ; #<VT>#
	_ZTV19CIntPropertyWatcher @ 113 NONAME ; #<VT>#
	_ZTV21CVCRecognitionHandler @ 114 NONAME ; #<VT>#
	_ZTV21CVCRecognitionManager @ 115 NONAME ; #<VT>#
	_ZTV23TVCommandTagPtrArrayKey @ 116 NONAME ; #<VT>#
	_ZTV9CVCommand @ 117 NONAME ; #<VT>#

