EXPORTS
	??0TTtsSegment@@QAE@KABVTDesC16@@ABVTDesC8@@ABVTTimeIntervalMicroSeconds32@@@Z @ 1 NONAME ; TTtsSegment::TTtsSegment(unsigned long, class TDesC16 const &, class TDesC8 const &, class TTimeIntervalMicroSeconds32 const &)
	??0TTtsStyle@@QAE@XZ @ 2 NONAME ; TTtsStyle::TTtsStyle(void)
	??1CTtsParsedText@@UAE@XZ @ 3 NONAME ; CTtsParsedText::~CTtsParsedText(void)
	?AddSegmentL@CTtsParsedText@@QAEXABVTTtsSegment@@H@Z @ 4 NONAME ; void CTtsParsedText::AddSegmentL(class TTtsSegment const &, int)
	?DeleteSegmentL@CTtsParsedText@@QAEXH@Z @ 5 NONAME ; void CTtsParsedText::DeleteSegmentL(int)
	?IsValid@CTtsParsedText@@QBEHXZ @ 6 NONAME ; int CTtsParsedText::IsValid(void) const
	?NewL@CTtsParsedText@@SAPAV1@ABVTDesC16@@ABVTDesC8@@0@Z @ 7 NONAME ; class CTtsParsedText * CTtsParsedText::NewL(class TDesC16 const &, class TDesC8 const &, class TDesC16 const &)
	?NumberOfSegments@CTtsParsedText@@QBEHXZ @ 8 NONAME ; int CTtsParsedText::NumberOfSegments(void) const
	?PhonemeNotation@CTtsParsedText@@QBEABVTDesC16@@XZ @ 9 NONAME ; class TDesC16 const & CTtsParsedText::PhonemeNotation(void) const
	?PhonemeSequence@CTtsParsedText@@QBEABVTDesC8@@XZ @ 10 NONAME ; class TDesC8 const & CTtsParsedText::PhonemeSequence(void) const
	?PhonemeSequencePtr@TTtsSegment@@QBEABVTDesC8@@XZ @ 11 NONAME ; class TDesC8 const & TTtsSegment::PhonemeSequencePtr(void) const
	?SegmentL@CTtsParsedText@@QBEABVTTtsSegment@@H@Z @ 12 NONAME ; class TTtsSegment const & CTtsParsedText::SegmentL(int) const
	?SetPhonemeNotationL@CTtsParsedText@@QAEXABVTDesC16@@@Z @ 13 NONAME ; void CTtsParsedText::SetPhonemeNotationL(class TDesC16 const &)
	?SetPhonemeSequenceL@CTtsParsedText@@QAEXABVTDesC8@@@Z @ 14 NONAME ; void CTtsParsedText::SetPhonemeSequenceL(class TDesC8 const &)
	?SetPhonemeSequencePtr@TTtsSegment@@QAEXABVTDesC8@@@Z @ 15 NONAME ; void TTtsSegment::SetPhonemeSequencePtr(class TDesC8 const &)
	?SetStyleID@TTtsSegment@@QAEXK@Z @ 16 NONAME ; void TTtsSegment::SetStyleID(unsigned long)
	?SetTextL@CTtsParsedText@@QAEXABVTDesC16@@@Z @ 17 NONAME ; void CTtsParsedText::SetTextL(class TDesC16 const &)
	?SetTextPtr@TTtsSegment@@QAEXABVTDesC16@@@Z @ 18 NONAME ; void TTtsSegment::SetTextPtr(class TDesC16 const &)
	?SetTrailingSilenceL@TTtsSegment@@QAEXABVTTimeIntervalMicroSeconds32@@@Z @ 19 NONAME ; void TTtsSegment::SetTrailingSilenceL(class TTimeIntervalMicroSeconds32 const &)
	?StyleID@TTtsSegment@@QBEKXZ @ 20 NONAME ; unsigned long TTtsSegment::StyleID(void) const
	?Text@CTtsParsedText@@QBEABVTDesC16@@XZ @ 21 NONAME ; class TDesC16 const & CTtsParsedText::Text(void) const
	?TextPtr@TTtsSegment@@QBEABVTDesC16@@XZ @ 22 NONAME ; class TDesC16 const & TTtsSegment::TextPtr(void) const
	?TrailingSilence@TTtsSegment@@QBEABVTTimeIntervalMicroSeconds32@@XZ @ 23 NONAME ; class TTimeIntervalMicroSeconds32 const & TTtsSegment::TrailingSilence(void) const
	?ResetStyle@TTtsSegment@@QAEXXZ @ 24 NONAME ; void TTtsSegment::ResetStyle(void)
	?SetStyle@TTtsSegment@@QAEXAAVTTtsStyle@@@Z @ 25 NONAME ; void TTtsSegment::SetStyle(class TTtsStyle &)
	?StyleL@TTtsSegment@@QAEAAVTTtsStyle@@XZ @ 26 NONAME ; class TTtsStyle & TTtsSegment::StyleL(void)

