EXPORTS
	??1CVCCommandUi@@UAE@XZ @ 1 NONAME ; CVCCommandUi::~CVCCommandUi(void)
	??1CVCFolderInfo@@UAE@XZ @ 2 NONAME ; CVCFolderInfo::~CVCFolderInfo(void)
	??1CVCRecognitionManager@@UAE@XZ @ 3 NONAME ; CVCRecognitionManager::~CVCRecognitionManager(void)
	??1CVCRunnable@@UAE@XZ @ 4 NONAME ; CVCRunnable::~CVCRunnable(void)
	??1CVCommand@@UAE@XZ @ 5 NONAME ; CVCommand::~CVCommand(void)
	??1CVCommandArray@@UAE@XZ @ 6 NONAME ; CVCommandArray::~CVCommandArray(void)
	??1CVCommandHandler@@UAE@XZ @ 7 NONAME ; CVCommandHandler::~CVCommandHandler(void)
	??8CVCCommandUi@@QBEHABV0@@Z @ 8 NONAME ; int CVCCommandUi::operator==(class CVCCommandUi const &) const
	??8CVCFolderInfo@@QBEHABV0@@Z @ 9 NONAME ; int CVCFolderInfo::operator==(class CVCFolderInfo const &) const
	??8CVCRunnable@@QBEHABV0@@Z @ 10 NONAME ; int CVCRunnable::operator==(class CVCRunnable const &) const
	??8CVCommand@@QBEHABV0@@Z @ 11 NONAME ; int CVCommand::operator==(class CVCommand const &) const
	??ACVCommandArray@@QBEABVCVCommand@@H@Z @ 12 NONAME ; class CVCommand const & CVCommandArray::operator[](int) const
	?AddCommandL@CVCommandHandler@@UAEXABVCVCommand@@@Z @ 13 NONAME ; void CVCommandHandler::AddCommandL(class CVCommand const &)
	?AddCommandsL@CVCommandHandler@@UAEXABV?$RPointerArray@VCVCommand@@@@H@Z @ 14 NONAME ; void CVCommandHandler::AddCommandsL(class RPointerArray<class CVCommand> const &, int)
	?AlternativeSpokenText@CVCommand@@QBEABVTDesC16@@XZ @ 15 NONAME ; class TDesC16 const & CVCommand::AlternativeSpokenText(void) const
	?Arguments@CVCRunnable@@QBEABVTDesC8@@XZ @ 16 NONAME ; class TDesC8 const & CVCRunnable::Arguments(void) const
	?At@CVCommandArray@@QBEABVCVCommand@@H@Z @ 17 NONAME ; class CVCommand const & CVCommandArray::At(int) const
	?CancelPlaybackL@CVCommand@@UBEXABVCVCommandHandler@@@Z @ 18 NONAME ; void CVCommand::CancelPlaybackL(class CVCommandHandler const &) const
	?CommandUi@CVCommand@@QBEABVCVCCommandUi@@XZ @ 19 NONAME ; class CVCCommandUi const & CVCommand::CommandUi(void) const
	?ConfirmationNeeded@CVCCommandUi@@QBEHXZ @ 20 NONAME ; int CVCCommandUi::ConfirmationNeeded(void) const
	?Count@CVCommandArray@@QBEHXZ @ 21 NONAME ; int CVCommandArray::Count(void) const
	?EqualNonUserChangeableData@CVCCommandUi@@QBEHABV1@@Z @ 22 NONAME ; int CVCCommandUi::EqualNonUserChangeableData(class CVCCommandUi const &) const
	?EqualNonUserChangeableData@CVCommand@@QBEHABV1@@Z @ 23 NONAME ; int CVCommand::EqualNonUserChangeableData(class CVCommand const &) const
	?ExeName@CVCRunnable@@QBEABVTDesC16@@XZ @ 24 NONAME ; class TDesC16 const & CVCRunnable::ExeName(void) const
	?ExecuteL@CVCRunnable@@QBEXXZ @ 25 NONAME ; void CVCRunnable::ExecuteL(void) const
	?ExternalizeL@CVCCommandUi@@QBEXAAVRWriteStream@@@Z @ 26 NONAME ; void CVCCommandUi::ExternalizeL(class RWriteStream &) const
	?ExternalizeL@CVCFolderInfo@@QBEXAAVRWriteStream@@@Z @ 27 NONAME ; void CVCFolderInfo::ExternalizeL(class RWriteStream &) const
	?ExternalizeL@CVCRunnable@@QBEXAAVRWriteStream@@@Z @ 28 NONAME ; void CVCRunnable::ExternalizeL(class RWriteStream &) const
	?ExternalizeL@CVCommand@@QBEXAAVRWriteStream@@@Z @ 29 NONAME ; void CVCommand::ExternalizeL(class RWriteStream &) const
	?FolderInfo@CVCCommandUi@@QBEABVCVCFolderInfo@@XZ @ 30 NONAME ; class CVCFolderInfo const & CVCCommandUi::FolderInfo(void) const
	?HelpTopicId@CVCFolderInfo@@QBEKXZ @ 31 NONAME ; unsigned long CVCFolderInfo::HelpTopicId(void) const
	?IconFile@CVCFolderInfo@@IBEAAVTDesC16@@XZ @ 32 NONAME ; class TDesC16 & CVCFolderInfo::IconFile(void) const
	?IconIndex@CVCFolderInfo@@IBEIXZ @ 33 NONAME ; unsigned int CVCFolderInfo::IconIndex(void) const
	?IconLC@CVCCommandUi@@QBEPAVCGulIcon@@XZ @ 34 NONAME ; class CGulIcon * CVCCommandUi::IconLC(void) const
	?IconLC@CVCFolderInfo@@QBEPAVCGulIcon@@XZ @ 35 NONAME ; class CGulIcon * CVCFolderInfo::IconLC(void) const
	?IconUid@CVCCommandUi@@QBEABVTUid@@XZ @ 36 NONAME ; class TUid const & CVCCommandUi::IconUid(void) const
	?ListCommandsL@CVCommandHandler@@UAEPAVCVCommandArray@@XZ @ 37 NONAME ; class CVCommandArray * CVCommandHandler::ListCommandsL(void)
	?ListedName@CVCFolderInfo@@QBEABVTDesC16@@XZ @ 38 NONAME ; class TDesC16 const & CVCFolderInfo::ListedName(void) const
	?Modifiable@CVCCommandUi@@QBEHXZ @ 39 NONAME ; int CVCCommandUi::Modifiable(void) const
	?NewL@CVCCommandUi@@SAPAV1@AAVRReadStream@@@Z @ 40 NONAME ; class CVCCommandUi * CVCCommandUi::NewL(class RReadStream &)
	?NewL@CVCCommandUi@@SAPAV1@ABV1@@Z @ 41 NONAME ; class CVCCommandUi * CVCCommandUi::NewL(class CVCCommandUi const &)
	?NewL@CVCCommandUi@@SAPAV1@ABVTDesC16@@ABVCVCFolderInfo@@H0ABVTUid@@0H@Z @ 42 NONAME ; class CVCCommandUi * CVCCommandUi::NewL(class TDesC16 const &, class CVCFolderInfo const &, int, class TDesC16 const &, class TUid const &, class TDesC16 const &, int)
	?NewL@CVCFolderInfo@@SAPAV1@AAVRReadStream@@@Z @ 43 NONAME ; class CVCFolderInfo * CVCFolderInfo::NewL(class RReadStream &)
	?NewL@CVCFolderInfo@@SAPAV1@ABV1@@Z @ 44 NONAME ; class CVCFolderInfo * CVCFolderInfo::NewL(class CVCFolderInfo const &)
	?NewL@CVCFolderInfo@@SAPAV1@ABVTDesC16@@0KI0@Z @ 45 NONAME ; class CVCFolderInfo * CVCFolderInfo::NewL(class TDesC16 const &, class TDesC16 const &, unsigned long, unsigned int, class TDesC16 const &)
	?NewL@CVCRecognitionManager@@SAPAV1@XZ @ 46 NONAME ; class CVCRecognitionManager * CVCRecognitionManager::NewL(void)
	?NewL@CVCRunnable@@SAPAV1@AAVRReadStream@@@Z @ 47 NONAME ; class CVCRunnable * CVCRunnable::NewL(class RReadStream &)
	?NewL@CVCRunnable@@SAPAV1@ABV1@@Z @ 48 NONAME ; class CVCRunnable * CVCRunnable::NewL(class CVCRunnable const &)
	?NewL@CVCRunnable@@SAPAV1@ABVTDesC16@@ABVTDesC8@@@Z @ 49 NONAME ; class CVCRunnable * CVCRunnable::NewL(class TDesC16 const &, class TDesC8 const &)
	?NewL@CVCRunnable@@SAPAV1@VTUid@@ABVTDesC8@@@Z @ 50 NONAME ; class CVCRunnable * CVCRunnable::NewL(class TUid, class TDesC8 const &)
	?NewL@CVCommand@@SAPAV1@AAVRReadStream@@@Z @ 51 NONAME ; class CVCommand * CVCommand::NewL(class RReadStream &)
	?NewL@CVCommand@@SAPAV1@ABV1@@Z @ 52 NONAME ; class CVCommand * CVCommand::NewL(class CVCommand const &)
	?NewL@CVCommand@@SAPAV1@ABVTDesC16@@ABVCVCRunnable@@ABVCVCCommandUi@@@Z @ 53 NONAME ; class CVCommand * CVCommand::NewL(class TDesC16 const &, class CVCRunnable const &, class CVCCommandUi const &)
	?NewL@CVCommandArray@@SAPAV1@ABV?$RPointerArray@VCVCommand@@@@@Z @ 54 NONAME ; class CVCommandArray * CVCommandArray::NewL(class RPointerArray<class CVCommand> const &)
	?NewL@CVCommandHandler@@SAPAV1@PAVMVCommandHandlerObserver@@@Z @ 55 NONAME ; class CVCommandHandler * CVCommandHandler::NewL(class MVCommandHandlerObserver *)
	?PlayAlternativeSpokenTextL@CVCommand@@UBEXABVCVCommandHandler@@AAVMNssPlayEventHandler@@@Z @ 56 NONAME ; void CVCommand::PlayAlternativeSpokenTextL(class CVCommandHandler const &, class MNssPlayEventHandler &) const
	?PlaySpokenTextL@CVCommand@@UBEXABVCVCommandHandler@@AAVMNssPlayEventHandler@@@Z @ 57 NONAME ; void CVCommand::PlaySpokenTextL(class CVCommandHandler const &, class MNssPlayEventHandler &) const
	?PointerArray@CVCommandArray@@QBEABV?$RPointerArray@VCVCommand@@@@XZ @ 58 NONAME ; class RPointerArray<class CVCommand> const & CVCommandArray::PointerArray(void) const
	?ProduceTrainSetByRunnablesLC@CVCommandArray@@QBEPAV1@ABV?$RPointerArray@VCVCommand@@@@@Z @ 59 NONAME ; class CVCommandArray * CVCommandArray::ProduceTrainSetByRunnablesLC(class RPointerArray<class CVCommand> const &) const
	?ProduceUntrainSetByRunnablesLC@CVCommandArray@@QBEPAV1@ABV?$RPointerArray@VCVCommand@@@@@Z @ 60 NONAME ; class CVCommandArray * CVCommandArray::ProduceUntrainSetByRunnablesLC(class RPointerArray<class CVCommand> const &) const
	?RemoveCommandL@CVCommandHandler@@UAEXABVCVCommand@@@Z @ 61 NONAME ; void CVCommandHandler::RemoveCommandL(class CVCommand const &)
	?RemoveCommandsL@CVCommandHandler@@UAEXABV?$RPointerArray@VCVCommand@@@@H@Z @ 62 NONAME ; void CVCommandHandler::RemoveCommandsL(class RPointerArray<class CVCommand> const &, int)
	?Runnable@CVCommand@@QBEABVCVCRunnable@@XZ @ 63 NONAME ; class CVCRunnable const & CVCommand::Runnable(void) const
	?SpokenText@CVCommand@@QBEABVTDesC16@@XZ @ 64 NONAME ; class TDesC16 const & CVCommand::SpokenText(void) const
	?Title@CVCFolderInfo@@QBEABVTDesC16@@XZ @ 65 NONAME ; class TDesC16 const & CVCFolderInfo::Title(void) const
	?Tooltip@CVCCommandUi@@QBEABVTDesC16@@XZ @ 66 NONAME ; class TDesC16 const & CVCCommandUi::Tooltip(void) const
	?Uid@CVCRunnable@@QBE?BVTUid@@XZ @ 67 NONAME ; class TUid const CVCRunnable::Uid(void) const
	?UserText@CVCCommandUi@@QBEABVTDesC16@@XZ @ 68 NONAME ; class TDesC16 const & CVCCommandUi::UserText(void) const
	?WrittenText@CVCCommandUi@@QBEABVTDesC16@@XZ @ 69 NONAME ; class TDesC16 const & CVCCommandUi::WrittenText(void) const

