EXPORTS
	_ZN27CSISpeechRecognitionUtility15CreateInstanceLEv @ 1 NONAME
	_ZN27CSISpeechRecognitionUtility10CreateRuleEtRm @ 2 NONAME
	_ZN27CSISpeechRecognitionUtility10LoadModelsEt @ 3 NONAME
	_ZN27CSISpeechRecognitionUtility10RemoveRuleEtm @ 4 NONAME
	_ZN27CSISpeechRecognitionUtility10UnloadRuleEtm @ 5 NONAME
	_ZN27CSISpeechRecognitionUtility11AddVoiceTagER12MDesC16ArrayRK6RArrayI9TLanguageEttRm @ 6 NONAME
	_ZN27CSISpeechRecognitionUtility11AddVoiceTagER12MDesC16ArrayRK6RArrayIS2_I9TLanguageEEttRm @ 7 NONAME
	_ZN27CSISpeechRecognitionUtility11LoadGrammarEt @ 8 NONAME
	_ZN27CSISpeechRecognitionUtility11LoadLexiconEt @ 9 NONAME
	_ZN27CSISpeechRecognitionUtility11RemoveModelEtt @ 10 NONAME
	_ZN27CSISpeechRecognitionUtility11RemoveRulesEtR6RArrayImE @ 11 NONAME
	_ZN27CSISpeechRecognitionUtility12AddVoiceTagsERK13RPointerArrayI12MDesC16ArrayERK6RArrayI9TLanguageEttRS5_ImE @ 12 NONAME
	_ZN27CSISpeechRecognitionUtility12AddVoiceTagsERK13RPointerArrayI12MDesC16ArrayERK6RArrayIS5_I9TLanguageEEttRS5_ImE @ 13 NONAME
	_ZN27CSISpeechRecognitionUtility13CommitChangesEv @ 14 NONAME
	_ZN27CSISpeechRecognitionUtility13CreateGrammarERt @ 15 NONAME
	_ZN27CSISpeechRecognitionUtility13CreateLexiconERt @ 16 NONAME
	_ZN27CSISpeechRecognitionUtility13EndRecSessionEv @ 17 NONAME
	_ZN27CSISpeechRecognitionUtility13GetAllRuleIDsEtR6RArrayImE @ 18 NONAME
	_ZN27CSISpeechRecognitionUtility13GetModelCountEtRi @ 19 NONAME
	_ZN27CSISpeechRecognitionUtility13RemoveGrammarEt @ 20 NONAME
	_ZN27CSISpeechRecognitionUtility13RemoveLexiconEt @ 21 NONAME
	_ZN27CSISpeechRecognitionUtility13UnloadGrammarEt @ 22 NONAME
	_ZN27CSISpeechRecognitionUtility14AddRuleVariantEttR6RArrayImEmRh @ 23 NONAME
	_ZN27CSISpeechRecognitionUtility14GetAllModelIDsEtR6RArrayItE @ 24 NONAME
	_ZN27CSISpeechRecognitionUtility15ActivateGrammarEt @ 25 NONAME
	_ZN27CSISpeechRecognitionUtility15CreateModelBankERt @ 26 NONAME
	_ZN27CSISpeechRecognitionUtility15GetRuleValidityEtmRi @ 27 NONAME
	_ZN27CSISpeechRecognitionUtility15RemoveModelBankEt @ 28 NONAME
	_ZN27CSISpeechRecognitionUtility15SetEventHandlerEP35MSISpeechRecognitionUtilityObserver @ 29 NONAME
	_ZN27CSISpeechRecognitionUtility15StartRecSessionE19TNSSRecognitionMode @ 30 NONAME
	_ZN27CSISpeechRecognitionUtility16AddPronunciationEtRK7TDesC169TLanguageRm @ 31 NONAME
	_ZN27CSISpeechRecognitionUtility16GetAllGrammarIDsER6RArrayItE @ 32 NONAME
	_ZN27CSISpeechRecognitionUtility16GetAllLexiconIDsER6RArrayItE @ 33 NONAME
	_ZN27CSISpeechRecognitionUtility16SetAudioPriorityEiiii @ 34 NONAME
	_ZN27CSISpeechRecognitionUtility17DeactivateGrammarEt @ 35 NONAME
	_ZN27CSISpeechRecognitionUtility18GetAllModelBankIDsER6RArrayItE @ 36 NONAME
	_ZN27CSISpeechRecognitionUtility19GetEnginePropertiesERK6RArrayIiERS1_ @ 37 NONAME
	_ZN27CSISpeechRecognitionUtility19RemovePronunciationEtm @ 38 NONAME
	_ZN27CSISpeechRecognitionUtility20LoadEngineParametersERK6RArrayIiES3_ @ 39 NONAME
	_ZN27CSISpeechRecognitionUtility22GetAllClientGrammarIDsER6RArrayItE @ 40 NONAME
	_ZN27CSISpeechRecognitionUtility22GetAllClientLexiconIDsER6RArrayItE @ 41 NONAME
	_ZN27CSISpeechRecognitionUtility22GetAllPronunciationIDsEtR6RArrayImE @ 42 NONAME
	_ZN27CSISpeechRecognitionUtility24GetAllClientModelBankIDsER6RArrayItE @ 43 NONAME
	_ZN27CSISpeechRecognitionUtility26CreateInstanceSecondPhaseLE4TUidS0_R35MSISpeechRecognitionUtilityObserver @ 44 NONAME
	_ZN27CSISpeechRecognitionUtility4NewLER35MSISpeechRecognitionUtilityObserver4TUid @ 45 NONAME
	_ZN27CSISpeechRecognitionUtility4NewLER35MSISpeechRecognitionUtilityObserver4TUidS2_ @ 46 NONAME
	_ZN27CSISpeechRecognitionUtility5AdaptERK18CSIClientResultSeti @ 47 NONAME
	_ZN27CSISpeechRecognitionUtility5NewLCER35MSISpeechRecognitionUtilityObserver4TUid @ 48 NONAME
	_ZN27CSISpeechRecognitionUtility6CancelEv @ 49 NONAME
	_ZN27CSISpeechRecognitionUtility6RecordE27TTimeIntervalMicroSeconds32 @ 50 NONAME
	_ZN27CSISpeechRecognitionUtility7AddRuleEttmRm @ 51 NONAME
	_ZN27CSISpeechRecognitionUtility9EndRecordEv @ 52 NONAME
	_ZN27CSISpeechRecognitionUtility9RecognizeER18CSIClientResultSet @ 53 NONAME
	_ZN27CSISpeechRecognitionUtilityD0Ev @ 54 NONAME
	_ZN27CSISpeechRecognitionUtilityD1Ev @ 55 NONAME
	_ZN27CSISpeechRecognitionUtilityD2Ev @ 56 NONAME
	_ZTI27CSISpeechRecognitionUtility @ 57 NONAME ; #<TI>#
	_ZTV27CSISpeechRecognitionUtility @ 58 NONAME ; #<VT>#
	_ZThn4_N27CSISpeechRecognitionUtility10CreateRuleEtRm @ 59 NONAME ; #<thunk>#
	_ZThn4_N27CSISpeechRecognitionUtility10LoadModelsEt @ 60 NONAME ; #<thunk>#
	_ZThn4_N27CSISpeechRecognitionUtility10RemoveRuleEtm @ 61 NONAME ; #<thunk>#
	_ZThn4_N27CSISpeechRecognitionUtility10UnloadRuleEtm @ 62 NONAME ; #<thunk>#
	_ZThn4_N27CSISpeechRecognitionUtility11AddVoiceTagER12MDesC16ArrayRK6RArrayI9TLanguageEttRm @ 63 NONAME ; #<thunk>#
	_ZThn4_N27CSISpeechRecognitionUtility11AddVoiceTagER12MDesC16ArrayRK6RArrayIS2_I9TLanguageEEttRm @ 64 NONAME ; #<thunk>#
	_ZThn4_N27CSISpeechRecognitionUtility11LoadGrammarEt @ 65 NONAME ; #<thunk>#
	_ZThn4_N27CSISpeechRecognitionUtility11LoadLexiconEt @ 66 NONAME ; #<thunk>#
	_ZThn4_N27CSISpeechRecognitionUtility11RemoveModelEtt @ 67 NONAME ; #<thunk>#
	_ZThn4_N27CSISpeechRecognitionUtility11RemoveRulesEtR6RArrayImE @ 68 NONAME ; #<thunk>#
	_ZThn4_N27CSISpeechRecognitionUtility12AddVoiceTagsERK13RPointerArrayI12MDesC16ArrayERK6RArrayI9TLanguageEttRS5_ImE @ 69 NONAME ; #<thunk>#
	_ZThn4_N27CSISpeechRecognitionUtility12AddVoiceTagsERK13RPointerArrayI12MDesC16ArrayERK6RArrayIS5_I9TLanguageEEttRS5_ImE @ 70 NONAME ; #<thunk>#
	_ZThn4_N27CSISpeechRecognitionUtility13CommitChangesEv @ 71 NONAME ; #<thunk>#
	_ZThn4_N27CSISpeechRecognitionUtility13CreateGrammarERt @ 72 NONAME ; #<thunk>#
	_ZThn4_N27CSISpeechRecognitionUtility13CreateLexiconERt @ 73 NONAME ; #<thunk>#
	_ZThn4_N27CSISpeechRecognitionUtility13EndRecSessionEv @ 74 NONAME ; #<thunk>#
	_ZThn4_N27CSISpeechRecognitionUtility13GetAllRuleIDsEtR6RArrayImE @ 75 NONAME ; #<thunk>#
	_ZThn4_N27CSISpeechRecognitionUtility13GetModelCountEtRi @ 76 NONAME ; #<thunk>#
	_ZThn4_N27CSISpeechRecognitionUtility13RemoveGrammarEt @ 77 NONAME ; #<thunk>#
	_ZThn4_N27CSISpeechRecognitionUtility13RemoveLexiconEt @ 78 NONAME ; #<thunk>#
	_ZThn4_N27CSISpeechRecognitionUtility13UnloadGrammarEt @ 79 NONAME ; #<thunk>#
	_ZThn4_N27CSISpeechRecognitionUtility14AddRuleVariantEttR6RArrayImEmRh @ 80 NONAME ; #<thunk>#
	_ZThn4_N27CSISpeechRecognitionUtility14GetAllModelIDsEtR6RArrayItE @ 81 NONAME ; #<thunk>#
	_ZThn4_N27CSISpeechRecognitionUtility15ActivateGrammarEt @ 82 NONAME ; #<thunk>#
	_ZThn4_N27CSISpeechRecognitionUtility15CreateModelBankERt @ 83 NONAME ; #<thunk>#
	_ZThn4_N27CSISpeechRecognitionUtility15GetRuleValidityEtmRi @ 84 NONAME ; #<thunk>#
	_ZThn4_N27CSISpeechRecognitionUtility15RemoveModelBankEt @ 85 NONAME ; #<thunk>#
	_ZThn4_N27CSISpeechRecognitionUtility15SetEventHandlerEP35MSISpeechRecognitionUtilityObserver @ 86 NONAME ; #<thunk>#
	_ZThn4_N27CSISpeechRecognitionUtility15StartRecSessionE19TNSSRecognitionMode @ 87 NONAME ; #<thunk>#
	_ZThn4_N27CSISpeechRecognitionUtility16AddPronunciationEtRK7TDesC169TLanguageRm @ 88 NONAME ; #<thunk>#
	_ZThn4_N27CSISpeechRecognitionUtility16GetAllGrammarIDsER6RArrayItE @ 89 NONAME ; #<thunk>#
	_ZThn4_N27CSISpeechRecognitionUtility16GetAllLexiconIDsER6RArrayItE @ 90 NONAME ; #<thunk>#
	_ZThn4_N27CSISpeechRecognitionUtility16SetAudioPriorityEiiii @ 91 NONAME ; #<thunk>#
	_ZThn4_N27CSISpeechRecognitionUtility17DeactivateGrammarEt @ 92 NONAME ; #<thunk>#
	_ZThn4_N27CSISpeechRecognitionUtility18GetAllModelBankIDsER6RArrayItE @ 93 NONAME ; #<thunk>#
	_ZThn4_N27CSISpeechRecognitionUtility19GetEnginePropertiesERK6RArrayIiERS1_ @ 94 NONAME ; #<thunk>#
	_ZThn4_N27CSISpeechRecognitionUtility19RemovePronunciationEtm @ 95 NONAME ; #<thunk>#
	_ZThn4_N27CSISpeechRecognitionUtility20LoadEngineParametersERK6RArrayIiES3_ @ 96 NONAME ; #<thunk>#
	_ZThn4_N27CSISpeechRecognitionUtility22GetAllClientGrammarIDsER6RArrayItE @ 97 NONAME ; #<thunk>#
	_ZThn4_N27CSISpeechRecognitionUtility22GetAllClientLexiconIDsER6RArrayItE @ 98 NONAME ; #<thunk>#
	_ZThn4_N27CSISpeechRecognitionUtility22GetAllPronunciationIDsEtR6RArrayImE @ 99 NONAME ; #<thunk>#
	_ZThn4_N27CSISpeechRecognitionUtility24GetAllClientModelBankIDsER6RArrayItE @ 100 NONAME ; #<thunk>#
	_ZThn4_N27CSISpeechRecognitionUtility26CreateInstanceSecondPhaseLE4TUidS0_R35MSISpeechRecognitionUtilityObserver @ 101 NONAME ; #<thunk>#
	_ZThn4_N27CSISpeechRecognitionUtility5AdaptERK18CSIClientResultSeti @ 102 NONAME ; #<thunk>#
	_ZThn4_N27CSISpeechRecognitionUtility6CancelEv @ 103 NONAME ; #<thunk>#
	_ZThn4_N27CSISpeechRecognitionUtility6RecordE27TTimeIntervalMicroSeconds32 @ 104 NONAME ; #<thunk>#
	_ZThn4_N27CSISpeechRecognitionUtility7AddRuleEttmRm @ 105 NONAME ; #<thunk>#
	_ZThn4_N27CSISpeechRecognitionUtility9EndRecordEv @ 106 NONAME ; #<thunk>#
	_ZThn4_N27CSISpeechRecognitionUtility9RecognizeER18CSIClientResultSet @ 107 NONAME ; #<thunk>#
	_ZThn4_N27CSISpeechRecognitionUtilityD0Ev @ 108 NONAME ; #<thunk>#
	_ZThn4_N27CSISpeechRecognitionUtilityD1Ev @ 109 NONAME ; #<thunk>#
	_ZN27CSISpeechRecognitionUtility16PreStartSamplingEv @ 110 NONAME
	_ZThn4_N27CSISpeechRecognitionUtility16PreStartSamplingEv @ 111 NONAME ; #<thunk>#

