EXPORTS
	?CreateInstanceL@CSISpeechRecognitionUtility@@SAPAXXZ @ 1 NONAME ; void * CSISpeechRecognitionUtility::CreateInstanceL(void)
	??1CSISpeechRecognitionUtility@@UAE@XZ @ 2 NONAME ; CSISpeechRecognitionUtility::~CSISpeechRecognitionUtility(void)
	?ActivateGrammar@CSISpeechRecognitionUtility@@UAEHG@Z @ 3 NONAME ; int CSISpeechRecognitionUtility::ActivateGrammar(unsigned short)
	?Adapt@CSISpeechRecognitionUtility@@UAEHABVCSIClientResultSet@@H@Z @ 4 NONAME ; int CSISpeechRecognitionUtility::Adapt(class CSIClientResultSet const &, int)
	?AddPronunciation@CSISpeechRecognitionUtility@@UAEHGABVTDesC16@@W4TLanguage@@AAK@Z @ 5 NONAME ; int CSISpeechRecognitionUtility::AddPronunciation(unsigned short, class TDesC16 const &, enum TLanguage, unsigned long &)
	?AddRule@CSISpeechRecognitionUtility@@UAEHGGKAAK@Z @ 6 NONAME ; int CSISpeechRecognitionUtility::AddRule(unsigned short, unsigned short, unsigned long, unsigned long &)
	?AddRuleVariant@CSISpeechRecognitionUtility@@UAEHGGAAV?$RArray@K@@KAAE@Z @ 7 NONAME ; int CSISpeechRecognitionUtility::AddRuleVariant(unsigned short, unsigned short, class RArray<unsigned long> &, unsigned long, unsigned char &)
	?AddVoiceTag@CSISpeechRecognitionUtility@@UAEHAAVMDesC16Array@@ABV?$RArray@V?$RArray@W4TLanguage@@@@@@GGAAK@Z @ 8 NONAME ; int CSISpeechRecognitionUtility::AddVoiceTag(class MDesC16Array &, class RArray<class RArray<enum TLanguage> > const &, unsigned short, unsigned short, unsigned long &)
	?AddVoiceTag@CSISpeechRecognitionUtility@@UAEHAAVMDesC16Array@@ABV?$RArray@W4TLanguage@@@@GGAAK@Z @ 9 NONAME ; int CSISpeechRecognitionUtility::AddVoiceTag(class MDesC16Array &, class RArray<enum TLanguage> const &, unsigned short, unsigned short, unsigned long &)
	?AddVoiceTags@CSISpeechRecognitionUtility@@UAEHABV?$RPointerArray@VMDesC16Array@@@@ABV?$RArray@V?$RArray@W4TLanguage@@@@@@GGAAV?$RArray@K@@@Z @ 10 NONAME ; int CSISpeechRecognitionUtility::AddVoiceTags(class RPointerArray<class MDesC16Array> const &, class RArray<class RArray<enum TLanguage> > const &, unsigned short, unsigned short, class RArray<unsigned long> &)
	?AddVoiceTags@CSISpeechRecognitionUtility@@UAEHABV?$RPointerArray@VMDesC16Array@@@@ABV?$RArray@W4TLanguage@@@@GGAAV?$RArray@K@@@Z @ 11 NONAME ; int CSISpeechRecognitionUtility::AddVoiceTags(class RPointerArray<class MDesC16Array> const &, class RArray<enum TLanguage> const &, unsigned short, unsigned short, class RArray<unsigned long> &)
	?Cancel@CSISpeechRecognitionUtility@@UAEXXZ @ 12 NONAME ; void CSISpeechRecognitionUtility::Cancel(void)
	?CommitChanges@CSISpeechRecognitionUtility@@UAEHXZ @ 13 NONAME ; int CSISpeechRecognitionUtility::CommitChanges(void)
	?CreateGrammar@CSISpeechRecognitionUtility@@UAEHAAG@Z @ 14 NONAME ; int CSISpeechRecognitionUtility::CreateGrammar(unsigned short &)
	?CreateInstanceSecondPhaseL@CSISpeechRecognitionUtility@@UAEXVTUid@@0AAVMSISpeechRecognitionUtilityObserver@@@Z @ 15 NONAME ; void CSISpeechRecognitionUtility::CreateInstanceSecondPhaseL(class TUid, class TUid, class MSISpeechRecognitionUtilityObserver &)
	?CreateLexicon@CSISpeechRecognitionUtility@@UAEHAAG@Z @ 16 NONAME ; int CSISpeechRecognitionUtility::CreateLexicon(unsigned short &)
	?CreateModelBank@CSISpeechRecognitionUtility@@UAEHAAG@Z @ 17 NONAME ; int CSISpeechRecognitionUtility::CreateModelBank(unsigned short &)
	?CreateRule@CSISpeechRecognitionUtility@@UAEHGAAK@Z @ 18 NONAME ; int CSISpeechRecognitionUtility::CreateRule(unsigned short, unsigned long &)
	?DeactivateGrammar@CSISpeechRecognitionUtility@@UAEHG@Z @ 19 NONAME ; int CSISpeechRecognitionUtility::DeactivateGrammar(unsigned short)
	?EndRecSession@CSISpeechRecognitionUtility@@UAEHXZ @ 20 NONAME ; int CSISpeechRecognitionUtility::EndRecSession(void)
	?EndRecord@CSISpeechRecognitionUtility@@UAEHXZ @ 21 NONAME ; int CSISpeechRecognitionUtility::EndRecord(void)
	?GetAllClientGrammarIDs@CSISpeechRecognitionUtility@@UAEHAAV?$RArray@G@@@Z @ 22 NONAME ; int CSISpeechRecognitionUtility::GetAllClientGrammarIDs(class RArray<unsigned short> &)
	?GetAllClientLexiconIDs@CSISpeechRecognitionUtility@@UAEHAAV?$RArray@G@@@Z @ 23 NONAME ; int CSISpeechRecognitionUtility::GetAllClientLexiconIDs(class RArray<unsigned short> &)
	?GetAllClientModelBankIDs@CSISpeechRecognitionUtility@@UAEHAAV?$RArray@G@@@Z @ 24 NONAME ; int CSISpeechRecognitionUtility::GetAllClientModelBankIDs(class RArray<unsigned short> &)
	?GetAllGrammarIDs@CSISpeechRecognitionUtility@@UAEHAAV?$RArray@G@@@Z @ 25 NONAME ; int CSISpeechRecognitionUtility::GetAllGrammarIDs(class RArray<unsigned short> &)
	?GetAllLexiconIDs@CSISpeechRecognitionUtility@@UAEHAAV?$RArray@G@@@Z @ 26 NONAME ; int CSISpeechRecognitionUtility::GetAllLexiconIDs(class RArray<unsigned short> &)
	?GetAllModelBankIDs@CSISpeechRecognitionUtility@@UAEHAAV?$RArray@G@@@Z @ 27 NONAME ; int CSISpeechRecognitionUtility::GetAllModelBankIDs(class RArray<unsigned short> &)
	?GetAllModelIDs@CSISpeechRecognitionUtility@@UAEHGAAV?$RArray@G@@@Z @ 28 NONAME ; int CSISpeechRecognitionUtility::GetAllModelIDs(unsigned short, class RArray<unsigned short> &)
	?GetAllPronunciationIDs@CSISpeechRecognitionUtility@@UAEHGAAV?$RArray@K@@@Z @ 29 NONAME ; int CSISpeechRecognitionUtility::GetAllPronunciationIDs(unsigned short, class RArray<unsigned long> &)
	?GetAllRuleIDs@CSISpeechRecognitionUtility@@UAEHGAAV?$RArray@K@@@Z @ 30 NONAME ; int CSISpeechRecognitionUtility::GetAllRuleIDs(unsigned short, class RArray<unsigned long> &)
	?GetEngineProperties@CSISpeechRecognitionUtility@@UAEHABV?$RArray@H@@AAV2@@Z @ 31 NONAME ; int CSISpeechRecognitionUtility::GetEngineProperties(class RArray<int> const &, class RArray<int> &)
	?GetModelCount@CSISpeechRecognitionUtility@@UAEHGAAH@Z @ 32 NONAME ; int CSISpeechRecognitionUtility::GetModelCount(unsigned short, int &)
	?GetRuleValidity@CSISpeechRecognitionUtility@@UAEHGKAAH@Z @ 33 NONAME ; int CSISpeechRecognitionUtility::GetRuleValidity(unsigned short, unsigned long, int &)
	?LoadEngineParameters@CSISpeechRecognitionUtility@@UAEHABV?$RArray@H@@0@Z @ 34 NONAME ; int CSISpeechRecognitionUtility::LoadEngineParameters(class RArray<int> const &, class RArray<int> const &)
	?LoadGrammar@CSISpeechRecognitionUtility@@UAEHG@Z @ 35 NONAME ; int CSISpeechRecognitionUtility::LoadGrammar(unsigned short)
	?LoadLexicon@CSISpeechRecognitionUtility@@UAEHG@Z @ 36 NONAME ; int CSISpeechRecognitionUtility::LoadLexicon(unsigned short)
	?LoadModels@CSISpeechRecognitionUtility@@UAEHG@Z @ 37 NONAME ; int CSISpeechRecognitionUtility::LoadModels(unsigned short)
	?NewL@CSISpeechRecognitionUtility@@SAPAV1@AAVMSISpeechRecognitionUtilityObserver@@VTUid@@1@Z @ 38 NONAME ; class CSISpeechRecognitionUtility * CSISpeechRecognitionUtility::NewL(class MSISpeechRecognitionUtilityObserver &, class TUid, class TUid)
	?NewL@CSISpeechRecognitionUtility@@SAPAV1@AAVMSISpeechRecognitionUtilityObserver@@VTUid@@@Z @ 39 NONAME ; class CSISpeechRecognitionUtility * CSISpeechRecognitionUtility::NewL(class MSISpeechRecognitionUtilityObserver &, class TUid)
	?NewLC@CSISpeechRecognitionUtility@@SAPAV1@AAVMSISpeechRecognitionUtilityObserver@@VTUid@@@Z @ 40 NONAME ; class CSISpeechRecognitionUtility * CSISpeechRecognitionUtility::NewLC(class MSISpeechRecognitionUtilityObserver &, class TUid)
	?Recognize@CSISpeechRecognitionUtility@@UAEHAAVCSIClientResultSet@@@Z @ 41 NONAME ; int CSISpeechRecognitionUtility::Recognize(class CSIClientResultSet &)
	?Record@CSISpeechRecognitionUtility@@UAEHVTTimeIntervalMicroSeconds32@@@Z @ 42 NONAME ; int CSISpeechRecognitionUtility::Record(class TTimeIntervalMicroSeconds32)
	?RemoveGrammar@CSISpeechRecognitionUtility@@UAEHG@Z @ 43 NONAME ; int CSISpeechRecognitionUtility::RemoveGrammar(unsigned short)
	?RemoveLexicon@CSISpeechRecognitionUtility@@UAEHG@Z @ 44 NONAME ; int CSISpeechRecognitionUtility::RemoveLexicon(unsigned short)
	?RemoveModel@CSISpeechRecognitionUtility@@UAEHGG@Z @ 45 NONAME ; int CSISpeechRecognitionUtility::RemoveModel(unsigned short, unsigned short)
	?RemoveModelBank@CSISpeechRecognitionUtility@@UAEHG@Z @ 46 NONAME ; int CSISpeechRecognitionUtility::RemoveModelBank(unsigned short)
	?RemovePronunciation@CSISpeechRecognitionUtility@@UAEHGK@Z @ 47 NONAME ; int CSISpeechRecognitionUtility::RemovePronunciation(unsigned short, unsigned long)
	?RemoveRule@CSISpeechRecognitionUtility@@UAEHGK@Z @ 48 NONAME ; int CSISpeechRecognitionUtility::RemoveRule(unsigned short, unsigned long)
	?RemoveRules@CSISpeechRecognitionUtility@@UAEHGAAV?$RArray@K@@@Z @ 49 NONAME ; int CSISpeechRecognitionUtility::RemoveRules(unsigned short, class RArray<unsigned long> &)
	?SetAudioPriority@CSISpeechRecognitionUtility@@UAEHHHHH@Z @ 50 NONAME ; int CSISpeechRecognitionUtility::SetAudioPriority(int, int, int, int)
	?SetEventHandler@CSISpeechRecognitionUtility@@UAEXPAVMSISpeechRecognitionUtilityObserver@@@Z @ 51 NONAME ; void CSISpeechRecognitionUtility::SetEventHandler(class MSISpeechRecognitionUtilityObserver *)
	?StartRecSession@CSISpeechRecognitionUtility@@UAEHW4TNSSRecognitionMode@@@Z @ 52 NONAME ; int CSISpeechRecognitionUtility::StartRecSession(enum TNSSRecognitionMode)
	?UnloadGrammar@CSISpeechRecognitionUtility@@UAEHG@Z @ 53 NONAME ; int CSISpeechRecognitionUtility::UnloadGrammar(unsigned short)
	?UnloadRule@CSISpeechRecognitionUtility@@UAEHGK@Z @ 54 NONAME ; int CSISpeechRecognitionUtility::UnloadRule(unsigned short, unsigned long)
	?PreStartSampling@CSISpeechRecognitionUtility@@UAEHXZ @ 55 NONAME ; int CSISpeechRecognitionUtility::PreStartSampling(void)

