EXPORTS
	_ZN34RSISpeechRecognitionCustomCommands10CreateRuleEtRm @ 1 NONAME
	_ZN34RSISpeechRecognitionCustomCommands10LoadModelsEt @ 2 NONAME
	_ZN34RSISpeechRecognitionCustomCommands10RemoveRuleEtm @ 3 NONAME
	_ZN34RSISpeechRecognitionCustomCommands10UnloadRuleEtm @ 4 NONAME
	_ZN34RSISpeechRecognitionCustomCommands11AddVoiceTagERK12MDesC16ArrayRK6RArrayI9TLanguageEttRm @ 5 NONAME
	_ZN34RSISpeechRecognitionCustomCommands11LoadGrammarEt @ 6 NONAME
	_ZN34RSISpeechRecognitionCustomCommands11LoadLexiconEt @ 7 NONAME
	_ZN34RSISpeechRecognitionCustomCommands11RemoveModelEtt @ 8 NONAME
	_ZN34RSISpeechRecognitionCustomCommands11RemoveRulesEtR6RArrayImE @ 9 NONAME
	_ZN34RSISpeechRecognitionCustomCommands12AddVoiceTagsERK13RPointerArrayI12MDesC16ArrayERK6RArrayI9TLanguageEttRS5_ImE @ 10 NONAME
	_ZN34RSISpeechRecognitionCustomCommands12SetClientUidE4TUid @ 11 NONAME
	_ZN34RSISpeechRecognitionCustomCommands13CommitChangesEv @ 12 NONAME
	_ZN34RSISpeechRecognitionCustomCommands13CreateGrammarERt @ 13 NONAME
	_ZN34RSISpeechRecognitionCustomCommands13CreateLexiconERt @ 14 NONAME
	_ZN34RSISpeechRecognitionCustomCommands13EndRecSessionEv @ 15 NONAME
	_ZN34RSISpeechRecognitionCustomCommands13GetAllRuleIDsEt @ 16 NONAME
	_ZN34RSISpeechRecognitionCustomCommands13GetModelCountEtRi @ 17 NONAME
	_ZN34RSISpeechRecognitionCustomCommands13RemoveGrammarEt @ 18 NONAME
	_ZN34RSISpeechRecognitionCustomCommands13RemoveLexiconEt @ 19 NONAME
	_ZN34RSISpeechRecognitionCustomCommands13UnloadGrammarEt @ 20 NONAME
	_ZN34RSISpeechRecognitionCustomCommands14AddRuleVariantEttRK6RArrayImEmRh @ 21 NONAME
	_ZN34RSISpeechRecognitionCustomCommands14GetAllModelIDsEt @ 22 NONAME
	_ZN34RSISpeechRecognitionCustomCommands15ActivateGrammarEt @ 23 NONAME
	_ZN34RSISpeechRecognitionCustomCommands15CreateModelBankERt @ 24 NONAME
	_ZN34RSISpeechRecognitionCustomCommands15GetRuleIDArrayLER6RArrayImE @ 25 NONAME
	_ZN34RSISpeechRecognitionCustomCommands15GetRuleValidityEtmRi @ 26 NONAME
	_ZN34RSISpeechRecognitionCustomCommands15GetSIResultSetLER18CSIClientResultSet @ 27 NONAME
	_ZN34RSISpeechRecognitionCustomCommands15RemoveModelBankEt @ 28 NONAME
	_ZN34RSISpeechRecognitionCustomCommands15StartRecSessionE19TNSSRecognitionMode @ 29 NONAME
	_ZN34RSISpeechRecognitionCustomCommands16AddPronunciationEtRK7TDesC169TLanguageRm @ 30 NONAME
	_ZN34RSISpeechRecognitionCustomCommands16GetAllGrammarIDsEv @ 31 NONAME
	_ZN34RSISpeechRecognitionCustomCommands16GetAllLexiconIDsEv @ 32 NONAME
	_ZN34RSISpeechRecognitionCustomCommands16GetModelIDArrayLER6RArrayItE @ 33 NONAME
	_ZN34RSISpeechRecognitionCustomCommands17DeactivateGrammarEt @ 34 NONAME
	_ZN34RSISpeechRecognitionCustomCommands18GetAllModelBankIDsEv @ 35 NONAME
	_ZN34RSISpeechRecognitionCustomCommands18GetGrammarIDArrayLER6RArrayItE @ 36 NONAME
	_ZN34RSISpeechRecognitionCustomCommands18GetLexiconIDArrayLER6RArrayItE @ 37 NONAME
	_ZN34RSISpeechRecognitionCustomCommands19GetEnginePropertiesERK6RArrayIiERS1_ @ 38 NONAME
	_ZN34RSISpeechRecognitionCustomCommands19RemovePronunciationEtm @ 39 NONAME
	_ZN34RSISpeechRecognitionCustomCommands20GetModelBankIDArrayLER6RArrayItE @ 40 NONAME
	_ZN34RSISpeechRecognitionCustomCommands20LoadEngineParametersERK6RArrayIiES3_ @ 41 NONAME
	_ZN34RSISpeechRecognitionCustomCommands22GetAllClientGrammarIDsEv @ 42 NONAME
	_ZN34RSISpeechRecognitionCustomCommands22GetAllClientLexiconIDsEv @ 43 NONAME
	_ZN34RSISpeechRecognitionCustomCommands22GetAllPronunciationIDsEt @ 44 NONAME
	_ZN34RSISpeechRecognitionCustomCommands24GetAllClientModelBankIDsEv @ 45 NONAME
	_ZN34RSISpeechRecognitionCustomCommands24GetPronunciationIDArrayLER6RArrayImE @ 46 NONAME
	_ZN34RSISpeechRecognitionCustomCommands5AdaptERK18CSIClientResultSeti @ 47 NONAME
	_ZN34RSISpeechRecognitionCustomCommands6CancelEv @ 48 NONAME
	_ZN34RSISpeechRecognitionCustomCommands6RecordE27TTimeIntervalMicroSeconds32 @ 49 NONAME
	_ZN34RSISpeechRecognitionCustomCommands7AddRuleEttmRm @ 50 NONAME
	_ZN34RSISpeechRecognitionCustomCommands9EndRecordEv @ 51 NONAME
	_ZN34RSISpeechRecognitionCustomCommands9RecognizeER18CSIClientResultSet @ 52 NONAME
	_ZN34RSISpeechRecognitionCustomCommandsC1ER14RMMFController @ 53 NONAME
	_ZN34RSISpeechRecognitionCustomCommandsC2ER14RMMFController @ 54 NONAME
	_ZN39CSISpeechRecognitionCustomCommandParser4NewLER44MSISpeechRecognitionCustomCommandImplementor @ 55 NONAME
	_ZN39CSISpeechRecognitionCustomCommandParserD0Ev @ 56 NONAME
	_ZN39CSISpeechRecognitionCustomCommandParserD1Ev @ 57 NONAME
	_ZN39CSISpeechRecognitionCustomCommandParserD2Ev @ 58 NONAME
	_ZTI39CSISpeechRecognitionCustomCommandParser @ 59 NONAME ; #<TI>#
	_ZTV39CSISpeechRecognitionCustomCommandParser @ 60 NONAME ; #<VT>#

