EXPORTS
	??1CNssAdaptationItem@@UAE@XZ @ 1 NONAME ; CNssAdaptationItem::~CNssAdaptationItem(void)
	??1CNssTrainingParameters@@UAE@XZ @ 2 NONAME ; CNssTrainingParameters::~CNssTrainingParameters(void)
	??1CVasVPbkHandler@@UAE@XZ @ 3 NONAME ; CVasVPbkHandler::~CVasVPbkHandler(void)
	?AdaptL@CNssAdaptationItem@@UAEXPAVMNssAdaptationEventHandler@@AAVMNssTag@@@Z @ 4 NONAME ; void CNssAdaptationItem::AdaptL(class MNssAdaptationEventHandler *, class MNssTag &)
	?AdaptL@CNssAdaptationItem@@UAEXPAVMNssAdaptationEventHandler@@H@Z @ 5 NONAME ; void CNssAdaptationItem::AdaptL(class MNssAdaptationEventHandler *, int)
	?ChangeVoiceTagFieldL@CVasVPbkHandler@@UAEXH@Z @ 6 NONAME ; void CVasVPbkHandler::ChangeVoiceTagFieldL(int)
	?CloseContactL@CVasVPbkHandler@@UAEXH@Z @ 7 NONAME ; void CVasVPbkHandler::CloseContactL(int)
	?CompressL@CVasVPbkHandler@@UAEXXZ @ 8 NONAME ; void CVasVPbkHandler::CompressL(void)
	?ContactIdArrayLC@CVasVPbkHandler@@UAEPAVCContactIdArray@@XZ @ 9 NONAME ; class CContactIdArray * CVasVPbkHandler::ContactIdArrayLC(void)
	?CreateContactObserverL@CVasVPbkHandler@@UAEXPAVMVasContactObserver@@@Z @ 10 NONAME ; void CVasVPbkHandler::CreateContactObserverL(class MVasContactObserver *)
	?Disable@CNssAdaptationItem@@QAEXXZ @ 11 NONAME ; void CNssAdaptationItem::Disable(void)
	?FieldIdL@CVasVPbkHandler@@UAEHXZ @ 12 NONAME ; int CVasVPbkHandler::FieldIdL(void)
	?FieldTypeL@CVasVPbkHandler@@UAE?AVTUid@@XZ @ 13 NONAME ; class TUid CVasVPbkHandler::FieldTypeL(void)
	?FindContactFieldL@CVasVPbkHandler@@UAEXPAVMNssTag@@@Z @ 14 NONAME ; void CVasVPbkHandler::FindContactFieldL(class MNssTag *)
	?FindContactL@CVasVPbkHandler@@UAEXJH@Z @ 15 NONAME ; void CVasVPbkHandler::FindContactL(long, int)
	?FindContactL@CVasVPbkHandler@@UAEXPAVMNssTag@@@Z @ 16 NONAME ; void CVasVPbkHandler::FindContactL(class MNssTag *)
	?FindDefaultContactFieldL@CVasVPbkHandler@@UAEXH@Z @ 17 NONAME ; void CVasVPbkHandler::FindDefaultContactFieldL(int)
	?FindFieldL@CVasVPbkHandler@@UAEXH@Z @ 18 NONAME ; void CVasVPbkHandler::FindFieldL(int)
	?FindFieldL@CVasVPbkHandler@@UAEXPAVMNssTag@@@Z @ 19 NONAME ; void CVasVPbkHandler::FindFieldL(class MNssTag *)
	?GetContextMgr@CNssVASDBMgr@@QAEPAVMNssContextMgr@@XZ @ 20 NONAME ; class MNssContextMgr * CNssVASDBMgr::GetContextMgr(void)
	?GetRecognitionHandler@CNssRecognitionHandlerBuilder@@QAEPAVMNssRecognitionHandler@@XZ @ 21 NONAME ; class MNssRecognitionHandler * CNssRecognitionHandlerBuilder::GetRecognitionHandler(void)
	?GetTagMgr@CNssVASDBMgr@@QAEPAVMNssTagMgr@@XZ @ 22 NONAME ; class MNssTagMgr * CNssVASDBMgr::GetTagMgr(void)
	?GetTagSelectNotification@CNssSelectNotificationBuilder@@QAEPAVMNssTagSelectNotification@@XZ @ 23 NONAME ; class MNssTagSelectNotification * CNssSelectNotificationBuilder::GetTagSelectNotification(void)
	?GetTagSelectNotifier@CNssVASDBMgr@@QAEPAVCNssDBTagSelectNotifier@@XZ @ 24 NONAME ; class CNssDBTagSelectNotifier * CNssVASDBMgr::GetTagSelectNotifier(void)
	?GetVASDBEventNotifier@CNssVASDBMgr@@QAEPAVMNssVASDBEventNotifier@@XZ @ 25 NONAME ; class MNssVASDBEventNotifier * CNssVASDBMgr::GetVASDBEventNotifier(void)
	?InitializeL@CNssRecognitionHandlerBuilder@@QAEXXZ @ 26 NONAME ; void CNssRecognitionHandlerBuilder::InitializeL(void)
	?InitializeL@CNssSelectNotificationBuilder@@QAEXXZ @ 27 NONAME ; void CNssSelectNotificationBuilder::InitializeL(void)
	?InitializeL@CNssVASDBMgr@@QAEHXZ @ 28 NONAME ; int CNssVASDBMgr::InitializeL(void)
	?InitializeL@CVasVPbkHandler@@UAEXXZ @ 29 NONAME ; void CVasVPbkHandler::InitializeL(void)
	?IsFieldEmptyL@CVasVPbkHandler@@UAEHXZ @ 30 NONAME ; int CVasVPbkHandler::IsFieldEmptyL(void)
	?LabelL@CVasVPbkHandler@@UAE?AVTPtrC16@@XZ @ 31 NONAME ; class TPtrC16 CVasVPbkHandler::LabelL(void)
	?Languages@CNssTrainingParameters@@QBEABV?$RArray@W4TLanguage@@@@XZ @ 32 NONAME ; class RArray<enum TLanguage> const & CNssTrainingParameters::Languages(void) const
	?NewL@CNssAdaptationItem@@SAPAV1@PAVCNssRecognitionHandler@@PAVCSIClientResultSet@@@Z @ 33 NONAME ; class CNssAdaptationItem * CNssAdaptationItem::NewL(class CNssRecognitionHandler *, class CSIClientResultSet *)
	?NewL@CNssRecognitionHandlerBuilder@@SAPAV1@XZ @ 34 NONAME ; class CNssRecognitionHandlerBuilder * CNssRecognitionHandlerBuilder::NewL(void)
	?NewL@CNssSelectNotificationBuilder@@SAPAV1@XZ @ 35 NONAME ; class CNssSelectNotificationBuilder * CNssSelectNotificationBuilder::NewL(void)
	?NewL@CNssTrainingParameters@@SAPAV1@XZ @ 36 NONAME ; class CNssTrainingParameters * CNssTrainingParameters::NewL(void)
	?NewL@CNssVASDBMgr@@SAPAV1@XZ @ 37 NONAME ; class CNssVASDBMgr * CNssVASDBMgr::NewL(void)
	?NewL@CVasVPbkHandler@@SAPAV1@XZ @ 38 NONAME ; class CVasVPbkHandler * CVasVPbkHandler::NewL(void)
	?NewLC@CNssRecognitionHandlerBuilder@@SAPAV1@XZ @ 39 NONAME ; class CNssRecognitionHandlerBuilder * CNssRecognitionHandlerBuilder::NewLC(void)
	?NewLC@CNssSelectNotificationBuilder@@SAPAV1@XZ @ 40 NONAME ; class CNssSelectNotificationBuilder * CNssSelectNotificationBuilder::NewLC(void)
	?NewLC@CNssTrainingParameters@@SAPAV1@XZ @ 41 NONAME ; class CNssTrainingParameters * CNssTrainingParameters::NewLC(void)
	?NewLC@CNssVASDBMgr@@SAPAV1@XZ @ 42 NONAME ; class CNssVASDBMgr * CNssVASDBMgr::NewLC(void)
	?ResetFactoryModelsL@CNssVASDBMgr@@QAEXPAVMNssResetFactoryModelsClient@@@Z @ 43 NONAME ; void CNssVASDBMgr::ResetFactoryModelsL(class MNssResetFactoryModelsClient *)
	?Separator@CNssTrainingParameters@@QBE?AVTChar@@XZ @ 44 NONAME ; class TChar CNssTrainingParameters::Separator(void) const
	?SetLanguages@CNssTrainingParameters@@QAEXPAV?$RArray@W4TLanguage@@@@@Z @ 45 NONAME ; void CNssTrainingParameters::SetLanguages(class RArray<enum TLanguage> *)
	?SetSeparator@CNssTrainingParameters@@QAEXVTChar@@@Z @ 46 NONAME ; void CNssTrainingParameters::SetSeparator(class TChar)
	?SetSindeLanguages@CNssTrainingParameters@@QAEXABV?$RArray@V?$RArray@W4TLanguage@@@@@@@Z @ 47 NONAME ; void CNssTrainingParameters::SetSindeLanguages(class RArray<class RArray<enum TLanguage> > const &)
	?SindeLanguagesL@CNssTrainingParameters@@QBEABV?$RArray@V?$RArray@W4TLanguage@@@@@@XZ @ 48 NONAME ; class RArray<class RArray<enum TLanguage> > const & CNssTrainingParameters::SindeLanguagesL(void) const
	?Tag@CNssVASDBEvent@@QAEPAVMNssTag@@XZ @ 49 NONAME ; class MNssTag * CNssVASDBEvent::Tag(void)
	?TextL@CVasVPbkHandler@@UAE?AVTPtrC16@@XZ @ 50 NONAME ; class TPtrC16 CVasVPbkHandler::TextL(void)
	?Type@CNssVASDBEvent@@QAE?AW4TVASDBEventType@1@XZ @ 51 NONAME ; enum CNssVASDBEvent::TVASDBEventType CNssVASDBEvent::Type(void)

