EXPORTS
	??1CDevASR@@UAE@XZ @ 1 NONAME ; CDevASR::~CDevASR(void)
	?ActivateGrammarL@CDevASR@@QAEXG@Z @ 2 NONAME ; void CDevASR::ActivateGrammarL(unsigned short)
	?AdaptL@CDevASR@@QAEXABVCSIResultSet@@H@Z @ 3 NONAME ; void CDevASR::AdaptL(class CSIResultSet const &, int)
	?Cancel@CDevASR@@QAEXXZ @ 4 NONAME ; void CDevASR::Cancel(void)
	?CompileGrammarL@CDevASR@@QAEXAAVCSICompiledGrammar@@@Z @ 5 NONAME ; void CDevASR::CompileGrammarL(class CSICompiledGrammar &)
	?ComputeNewGrammarSizeL@CDevASR@@QAEXABVCSIGrammar@@KKABV?$RArray@I@@AAV3@AAK@Z @ 6 NONAME ; void CDevASR::ComputeNewGrammarSizeL(class CSIGrammar const &, unsigned long, unsigned long, class RArray<unsigned int> const &, class RArray<unsigned int> &, unsigned long &)
	?CustomInterface@CDevASR@@QAEPAXVTUid@@@Z @ 7 NONAME ; void * CDevASR::CustomInterface(class TUid)
	?DeactivateGrammarL@CDevASR@@QAEXG@Z @ 8 NONAME ; void CDevASR::DeactivateGrammarL(unsigned short)
	?EndRecSession@CDevASR@@QAEXXZ @ 9 NONAME ; void CDevASR::EndRecSession(void)
	?EndRecord@CDevASR@@QAEXXZ @ 10 NONAME ; void CDevASR::EndRecord(void)
	?GetEnginePropertiesL@CDevASR@@QAEXABV?$RArray@H@@AAV2@@Z @ 11 NONAME ; void CDevASR::GetEnginePropertiesL(class RArray<int> const &, class RArray<int> &)
	?GetUtteranceData@CDevASR@@QAEXPAVTDes8@@AAVTTimeIntervalMicroSeconds32@@@Z @ 12 NONAME ; void CDevASR::GetUtteranceData(class TDes8 *, class TTimeIntervalMicroSeconds32 &)
	?InitFrontEnd@CDevASR@@QAEXW4TRecognizerMode@@@Z @ 13 NONAME ; void CDevASR::InitFrontEnd(enum TRecognizerMode)
	?InitRecognizerBE@CDevASR@@QAEXAAVCSIResultSet@@@Z @ 14 NONAME ; void CDevASR::InitRecognizerBE(class CSIResultSet &)
	?IsGrammarActive@CDevASR@@QAEHG@Z @ 15 NONAME ; int CDevASR::IsGrammarActive(unsigned short)
	?IsGrammarLoaded@CDevASR@@QAEHG@Z @ 16 NONAME ; int CDevASR::IsGrammarLoaded(unsigned short)
	?LoadEngineParametersL@CDevASR@@QAEXABV?$RArray@H@@0@Z @ 17 NONAME ; void CDevASR::LoadEngineParametersL(class RArray<int> const &, class RArray<int> const &)
	?LoadGrammar@CDevASR@@QAEXABVCSICompiledGrammar@@@Z @ 18 NONAME ; void CDevASR::LoadGrammar(class CSICompiledGrammar const &)
	?LoadGrammar@CDevASR@@QAEXABVCSIGrammar@@@Z @ 19 NONAME ; void CDevASR::LoadGrammar(class CSIGrammar const &)
	?LoadLexicon@CDevASR@@QAEXABVCSILexicon@@@Z @ 20 NONAME ; void CDevASR::LoadLexicon(class CSILexicon const &)
	?LoadModels@CDevASR@@QAEXABVCSIModelBank@@@Z @ 21 NONAME ; void CDevASR::LoadModels(class CSIModelBank const &)
	?NewL@CDevASR@@SAPAV1@AAVMDevASRObserver@@@Z @ 22 NONAME ; class CDevASR * CDevASR::NewL(class MDevASRObserver &)
	?NewLC@CDevASR@@SAPAV1@AAVMDevASRObserver@@@Z @ 23 NONAME ; class CDevASR * CDevASR::NewLC(class MDevASRObserver &)
	?PruneGrammar@CDevASR@@QAEHABVCSIGrammar@@KAAV?$RArray@VTSIRuleVariantInfo@@@@@Z @ 24 NONAME ; int CDevASR::PruneGrammar(class CSIGrammar const &, unsigned long, class RArray<class TSIRuleVariantInfo> &)
	?Record@CDevASR@@QAEXVTTimeIntervalMicroSeconds32@@@Z @ 25 NONAME ; void CDevASR::Record(class TTimeIntervalMicroSeconds32)
	?SendSpeechData@CDevASR@@QAEXAAVTPtrC8@@H@Z @ 26 NONAME ; void CDevASR::SendSpeechData(class TPtrC8 &, int)
	?SetPrioritySettings@CDevASR@@QAEXABVTMMFPrioritySettings@@@Z @ 27 NONAME ; void CDevASR::SetPrioritySettings(class TMMFPrioritySettings const &)
	?StartRecSession@CDevASR@@QAEHW4TRecognizerMode@@@Z @ 28 NONAME ; int CDevASR::StartRecSession(enum TRecognizerMode)
	?StartTrainingFromTextL@CDevASR@@QAEXAAVCSITtpWordList@@ABV?$RArray@W4TLanguage@@@@ABV?$RArray@K@@@Z @ 29 NONAME ; void CDevASR::StartTrainingFromTextL(class CSITtpWordList &, class RArray<enum TLanguage> const &, class RArray<unsigned long> const &)
	?UnloadGrammar@CDevASR@@QAEXABVCSICompiledGrammar@@@Z @ 30 NONAME ; void CDevASR::UnloadGrammar(class CSICompiledGrammar const &)
	?UnloadGrammar@CDevASR@@QAEXABVCSIGrammar@@@Z @ 31 NONAME ; void CDevASR::UnloadGrammar(class CSIGrammar const &)
	?UnloadRule@CDevASR@@QAEXGK@Z @ 32 NONAME ; void CDevASR::UnloadRule(unsigned short, unsigned long)
	?PreStartSamplingL@CDevASR@@QAEXXZ @ 33 NONAME ; void CDevASR::PreStartSamplingL(void)

