EXPORTS
	_ZN18RTtsCustomCommands11DeleteStyleEm @ 1 NONAME
	_ZN18RTtsCustomCommands11GetPositionERi @ 2 NONAME
	_ZN18RTtsCustomCommands11SetPositionEi @ 3 NONAME
	_ZN18RTtsCustomCommands14NumberOfStylesERt @ 4 NONAME
	_ZN18RTtsCustomCommands14OpenParsedTextER14CTtsParsedText @ 5 NONAME
	_ZN18RTtsCustomCommands15GetDefaultStyleER9TTtsStyle @ 6 NONAME
	_ZN18RTtsCustomCommands15GetSpeakingRateERi @ 7 NONAME
	_ZN18RTtsCustomCommands15SetDefaultStyleERK9TTtsStyle @ 8 NONAME
	_ZN18RTtsCustomCommands15SetSpeakingRateEi @ 9 NONAME
	_ZN18RTtsCustomCommands18GetSupportedVoicesE9TLanguageR6RArrayI9TTtsStyleE @ 10 NONAME
	_ZN18RTtsCustomCommands21GetSupportedLanguagesER6RArrayI9TLanguageE @ 11 NONAME
	_ZN18RTtsCustomCommands5StyleEmR9TTtsStyle @ 12 NONAME
	_ZN18RTtsCustomCommands5StyleEtR9TTtsStyle @ 13 NONAME
	_ZN18RTtsCustomCommands8AddStyleERK9TTtsStyleRm @ 14 NONAME
	_ZN18RTtsCustomCommandsC1ER14RMMFController @ 15 NONAME
	_ZN18RTtsCustomCommandsC2ER14RMMFController @ 16 NONAME
	_ZN23CTtsCustomCommandParser4NewLER28MTtsCustomCommandImplementor @ 17 NONAME
	_ZN23CTtsCustomCommandParserD0Ev @ 18 NONAME
	_ZN23CTtsCustomCommandParserD1Ev @ 19 NONAME
	_ZN23CTtsCustomCommandParserD2Ev @ 20 NONAME
	_ZTI23CTtsCustomCommandParser @ 21 NONAME ; #<TI>#
	_ZTV23CTtsCustomCommandParser @ 22 NONAME ; #<VT>#

