EXPORTS	
	?CreateInstanceL@CTtsUtility@@SAPAXXZ @ 1 NONAME ; void * CTtsUtility::CreateInstanceL(void)
	??1CTtsUtility@@UAE@XZ @ 2 NONAME ; CTtsUtility::~CTtsUtility(void)
	?AddStyleL@CTtsUtility@@UAEKABVTTtsStyle@@@Z @ 3 NONAME ; unsigned long CTtsUtility::AddStyleL(class TTtsStyle const &)
	?Close@CTtsUtility@@UAEXXZ @ 4 NONAME ; void CTtsUtility::Close(void)
	?CreateInstanceSecondPhaseL@CTtsUtility@@UAEXAAVMTtsClientUtilityObserver@@@Z @ 5 NONAME ; void CTtsUtility::CreateInstanceSecondPhaseL(class MTtsClientUtilityObserver &)
	?CustomCommandAsync@CTtsUtility@@UAEXABV?$TPckgBuf@VTMMFMessageDestination@@@@HABVTDesC8@@1AAVTDes8@@AAVTRequestStatus@@@Z @ 6 NONAME ; void CTtsUtility::CustomCommandAsync(class TPckgBuf<class TMMFMessageDestination> const &, int, class TDesC8 const &, class TDesC8 const &, class TDes8 &, class TRequestStatus &)
	?CustomCommandAsync@CTtsUtility@@UAEXABV?$TPckgBuf@VTMMFMessageDestination@@@@HABVTDesC8@@1AAVTRequestStatus@@@Z @ 7 NONAME ; void CTtsUtility::CustomCommandAsync(class TPckgBuf<class TMMFMessageDestination> const &, int, class TDesC8 const &, class TDesC8 const &, class TRequestStatus &)
	?CustomCommandSync@CTtsUtility@@UAEHABV?$TPckgBuf@VTMMFMessageDestination@@@@HABVTDesC8@@1@Z @ 8 NONAME ; int CTtsUtility::CustomCommandSync(class TPckgBuf<class TMMFMessageDestination> const &, int, class TDesC8 const &, class TDesC8 const &)
	?CustomCommandSync@CTtsUtility@@UAEHABV?$TPckgBuf@VTMMFMessageDestination@@@@HABVTDesC8@@1AAVTDes8@@@Z @ 9 NONAME ; int CTtsUtility::CustomCommandSync(class TPckgBuf<class TMMFMessageDestination> const &, int, class TDesC8 const &, class TDesC8 const &, class TDes8 &)
	?DefaultStyleL@CTtsUtility@@UAEAAVTTtsStyle@@XZ @ 10 NONAME ; class TTtsStyle & CTtsUtility::DefaultStyleL(void)
	?DeleteStyle@CTtsUtility@@UAEHK@Z @ 11 NONAME ; int CTtsUtility::DeleteStyle(unsigned long)
	?Duration@CTtsUtility@@UAEABVTTimeIntervalMicroSeconds@@XZ @ 12 NONAME ; class TTimeIntervalMicroSeconds const & CTtsUtility::Duration(void)
	?GetBalance@CTtsUtility@@UAEHAAH@Z @ 13 NONAME ; int CTtsUtility::GetBalance(int &)
	?GetPosition@CTtsUtility@@UAEHAAH@Z @ 14 NONAME ; int CTtsUtility::GetPosition(int &)
	?GetPosition@CTtsUtility@@UAEHAAVTTimeIntervalMicroSeconds@@@Z @ 15 NONAME ; int CTtsUtility::GetPosition(class TTimeIntervalMicroSeconds &)
	?GetSupportedLanguagesL@CTtsUtility@@UAEXAAV?$RArray@W4TLanguage@@@@@Z @ 16 NONAME ; void CTtsUtility::GetSupportedLanguagesL(class RArray<enum TLanguage> &)
	?GetSupportedVoicesL@CTtsUtility@@UAEXW4TLanguage@@AAV?$RArray@VTTtsStyle@@@@@Z @ 17 NONAME ; void CTtsUtility::GetSupportedVoicesL(enum TLanguage, class RArray<class TTtsStyle> &)
	?GetVolume@CTtsUtility@@UAEHAAH@Z @ 18 NONAME ; int CTtsUtility::GetVolume(int &)
	?ListPluginsL@CTtsUtility@@UAEXAAV?$RArray@VTUid@@@@@Z @ 19 NONAME ; void CTtsUtility::ListPluginsL(class RArray<class TUid> &)
	?MaxVolume@CTtsUtility@@UAEHXZ @ 20 NONAME ; int CTtsUtility::MaxVolume(void)
	?NewL@CTtsUtility@@SAPAV1@AAVMTtsClientUtilityObserver@@@Z @ 21 NONAME ; class CTtsUtility * CTtsUtility::NewL(class MTtsClientUtilityObserver &)
	?NumberOfStyles@CTtsUtility@@UAEGXZ @ 22 NONAME ; unsigned short CTtsUtility::NumberOfStyles(void)
	?OpenAndPlayDesL@CTtsUtility@@UAEXABVTDesC16@@@Z @ 23 NONAME ; void CTtsUtility::OpenAndPlayDesL(class TDesC16 const &)
	?OpenAndPlayDesL@CTtsUtility@@UAEXABVTDesC8@@@Z @ 24 NONAME ; void CTtsUtility::OpenAndPlayDesL(class TDesC8 const &)
	?OpenAndPlayFileL@CTtsUtility@@UAEXABVTDesC16@@@Z @ 25 NONAME ; void CTtsUtility::OpenAndPlayFileL(class TDesC16 const &)
	?OpenAndPlayParsedTextL@CTtsUtility@@UAEXAAVCTtsParsedText@@@Z @ 26 NONAME ; void CTtsUtility::OpenAndPlayParsedTextL(class CTtsParsedText &)
	?OpenDesL@CTtsUtility@@UAEXABVTDesC16@@@Z @ 27 NONAME ; void CTtsUtility::OpenDesL(class TDesC16 const &)
	?OpenDesL@CTtsUtility@@UAEXABVTDesC8@@@Z @ 28 NONAME ; void CTtsUtility::OpenDesL(class TDesC8 const &)
	?OpenFileL@CTtsUtility@@UAEXABVTDesC16@@@Z @ 29 NONAME ; void CTtsUtility::OpenFileL(class TDesC16 const &)
	?OpenParsedTextL@CTtsUtility@@UAEXAAVCTtsParsedText@@@Z @ 30 NONAME ; void CTtsUtility::OpenParsedTextL(class CTtsParsedText &)
	?OpenPluginL@CTtsUtility@@UAEXVTUid@@@Z @ 31 NONAME ; void CTtsUtility::OpenPluginL(class TUid)
	?Pause@CTtsUtility@@UAEHXZ @ 32 NONAME ; int CTtsUtility::Pause(void)
	?Play@CTtsUtility@@UAEXXZ @ 33 NONAME ; void CTtsUtility::Play(void)
	?SetBalance@CTtsUtility@@UAEHH@Z @ 34 NONAME ; int CTtsUtility::SetBalance(int)
	?SetDefaultStyleL@CTtsUtility@@UAEXABVTTtsStyle@@@Z @ 35 NONAME ; void CTtsUtility::SetDefaultStyleL(class TTtsStyle const &)
	?SetOutputFileL@CTtsUtility@@UAEXABVRFile@@@Z @ 36 NONAME ; void CTtsUtility::SetOutputFileL(class RFile const &)
	?SetPosition@CTtsUtility@@UAEXABVTTimeIntervalMicroSeconds@@@Z @ 37 NONAME ; void CTtsUtility::SetPosition(class TTimeIntervalMicroSeconds const &)
	?SetPosition@CTtsUtility@@UAEXH@Z @ 38 NONAME ; void CTtsUtility::SetPosition(int)
	?SetPriority@CTtsUtility@@UAEHHW4TMdaPriorityPreference@@@Z @ 39 NONAME ; int CTtsUtility::SetPriority(int, enum TMdaPriorityPreference)
	?SetRepeats@CTtsUtility@@UAEXHABVTTimeIntervalMicroSeconds@@@Z @ 40 NONAME ; void CTtsUtility::SetRepeats(int, class TTimeIntervalMicroSeconds const &)
	?SetSpeakingRateL@CTtsUtility@@UAEXH@Z @ 41 NONAME ; void CTtsUtility::SetSpeakingRateL(int)
	?SetVolume@CTtsUtility@@UAEXH@Z @ 42 NONAME ; void CTtsUtility::SetVolume(int)
	?SpeakingRateL@CTtsUtility@@UAEHXZ @ 43 NONAME ; int CTtsUtility::SpeakingRateL(void)
	?Stop@CTtsUtility@@UAEXXZ @ 44 NONAME ; void CTtsUtility::Stop(void)
	?StyleL@CTtsUtility@@UAEAAVTTtsStyle@@G@Z @ 45 NONAME ; class TTtsStyle & CTtsUtility::StyleL(unsigned short)
	?StyleL@CTtsUtility@@UAEAAVTTtsStyle@@K@Z @ 46 NONAME ; class TTtsStyle & CTtsUtility::StyleL(unsigned long)

